ASxxxx Linker V03.00 + NoICE + sdld,  page 1.
Hexadecimal  [32-Bits]

Area                                    Addr        Size        Decimal Bytes (Attributes)
--------------------------------        ----        ----        ------- ----- ------------
.  .ABS.                            00000000    00000000 =           0. bytes (ABS,CON)

      Value  Global                              Global Defined In Module
      -----  --------------------------------   ------------------------
     00000000  .__.ABS.                           
     00000000  _rRAMG                             
     00000000  l__BASE                         
     00000000  l__BSS                          
     00000000  l__CABS                         
     00000000  l__CODE_0                       
     00000000  l__CRASH_HEADER                 
     00000000  l__CRASH_SCRATCH                
     00000000  l__DABS                         
     00000000  l__EHL_TRAMPOLINE               
     00000000  l__HEADER                       
     00000000  l__HEADER_LCD                   
     00000000  l__HEADER_SIO                   
     00000000  l__HEADER_TIMER                 
     00000000  l__HEAP                         
     00000000  l__HRAM                         
     00000000  l__LIT                          
     00000000  s__CABS                         
     00000000  s__CRASH_HEADER                 
     00000000  s__CRASH_HEADER0                
     00000000  s__CRASH_HEADER1                
     00000000  s__CRASH_SCRATCH                
     00000000  s__CRASH_SCRATCH2               
     00000000  s__DABS                         
     00000000  s__EHL_TRAMPOLINE               
     00000000  s__EHL_TRAMPOLINE0              
     00000000  s__HEADER                       
     00000000  s__HEADER0                      
     00000000  s__HEADER1                      
     00000000  s__HEADER10                     
     00000000  s__HEADER11                     
     00000000  s__HEADER2                      
     00000000  s__HEADER3                      
     00000000  s__HEADER4                      
     00000000  s__HEADER5                      
     00000000  s__HEADER6                      
     00000000  s__HEADER7                      
     00000000  s__HEADER8                      
     00000000  s__HEADER9                      
     00000000  s__HEADER_LCD                   
     00000000  s__HEADER_LCD0                  
     00000000  s__HEADER_SIO                   
     00000000  s__HEADER_SIO0                  
     00000000  s__HEADER_TIMER                 
     00000000  s__HEADER_TIMER0                
     00000000  s__HEADERa                      
     00000000  s__HEADERb                      
     00000000  s__HEADERc                      
     00000000  s__HEADERd                      
     00000000  s__HEADERe                      
ASxxxx Linker V03.00 + NoICE + sdld,  page 2.
Hexadecimal  [32-Bits]

Area                                    Addr        Size        Decimal Bytes (Attributes)
--------------------------------        ----        ----        ------- ----- ------------
.  .ABS.                            00000000    00000000 =           0. bytes (ABS,CON)

      Value  Global                              Global Defined In Module
      -----  --------------------------------   ------------------------
     00000000  s__HEADERf                      
     00000000  s__HRAM                         
     00000000  s__HRAM12                       
     00000001  ___bank_ACTOR                      actor
     00000001  ___bank_VM_ACTOR                   vm_actor
     00000001  ___bank_VM_SGB                     vm_sgb
     00000001  ___bank_bg_room_tileset            bg_room_tileset
     00000001  b_activate_actor                   actor
     00000001  b_activate_actors_in_col           actor
     00000001  b_activate_actors_in_row           actor
     00000001  b_actor_at_tile                    actor
     00000001  b_actor_get_frame_offset           actor
     00000001  b_actor_in_front_of_player         actor
     00000001  b_actor_overlapping_bb             actor
     00000001  b_actor_overlapping_player         actor
     00000001  b_actor_set_anim_idle              actor
     00000001  b_actor_set_anim_moving            actor
     00000001  b_actor_set_dir                    actor
     00000001  b_actor_set_frame_offset           actor
     00000001  b_actor_set_frames                 actor
     00000001  b_actors_handle_player_collision   actor
     00000001  b_actors_init                      actor
     00000001  b_check_collision_in_direction     actor
     00000001  b_deactivate_actor                 actor
     00000001  b_player_init                      actor
     00000001  b_ui_draw_frame                    ui
     00000001  b_ui_draw_text_buffer_char         ui
     00000001  b_ui_init                          ui
     00000001  b_ui_load_tiles                    ui
     00000001  b_ui_run_menu                      ui
     00000001  b_ui_run_modal                     ui
     00000001  b_ui_set_start_tile                ui
     00000001  b_vm_actor_activate                vm_actor
     00000001  b_vm_actor_deactivate              vm_actor
     00000001  b_vm_actor_emote                   vm_actor
     00000001  b_vm_actor_get_angle               vm_actor
     00000001  b_vm_actor_get_anim_frame          vm_actor
     00000001  b_vm_actor_get_dir                 vm_actor
     00000001  b_vm_actor_get_pos                 vm_actor
     00000001  b_vm_actor_move_cancel             vm_actor
     00000001  b_vm_actor_move_to                 vm_actor
     00000001  b_vm_actor_replace_tile            vm_actor
     00000001  b_vm_actor_set_anim                vm_actor
     00000001  b_vm_actor_set_anim_frame          vm_actor
     00000001  b_vm_actor_set_anim_set            vm_actor
     00000001  b_vm_actor_set_anim_tick           vm_actor
     00000001  b_vm_actor_set_bounds              vm_actor
     00000001  b_vm_actor_set_dir                 vm_actor
     00000001  b_vm_actor_set_flags               vm_actor
     00000001  b_vm_actor_set_move_speed          vm_actor
     00000001  b_vm_actor_set_pos                 vm_actor
ASxxxx Linker V03.00 + NoICE + sdld,  page 3.
Hexadecimal  [32-Bits]

Area                                    Addr        Size        Decimal Bytes (Attributes)
--------------------------------        ----        ----        ------- ----- ------------
.  .ABS.                            00000000    00000000 =           0. bytes (ABS,CON)

      Value  Global                              Global Defined In Module
      -----  --------------------------------   ------------------------
     00000001  b_vm_actor_set_spritesheet         vm_actor
     00000001  b_vm_actor_set_spritesheet_by_re   vm_actor
     00000001  b_vm_actor_terminate_update        vm_actor
     00000001  l__GSFINAL                      
     00000001  l__HEADER0                      
     00000001  l__HEADER11                     
     00000001  l__HEADER9                      
     00000001  l__HEADERa                      
     00000001  l__HEADERb                      
     00000001  l__HEADERd                      
     00000001  l__HEADERe                      
     00000002  ___bank_bg_leaving_earth_tilemap   bg_leaving_earth_tilemap
     00000002  ___bank_bg_leaving_earth_tilemap   bg_leaving_earth_tilemap_att
     00000002  ___bank_scene_space_battle_colli   scene_space_battle_collision
     00000002  ___bank_song_rulz_gonaspace_0_Da   song_rulz_gonaspace_0_Data
     00000002  ___bank_trigger_12_interact        trigger_12_interact
     00000002  ___mute_mask_sound_gbstudio_sfx_   sound_gbstudio_sfx_sav
     00000002  ___mute_mask_sound_gbstudio_sfx_   sound_gbstudio_sfx_sav
     00000002  ___mute_mask_sound_gbstudio_sfx_   sound_gbstudio_sfx_sav
     00000002  ___mute_mask_sound_gbstudio_sfx_   sound_gbstudio_sfx_sav
     00000002  ___mute_mask_sound_gbstudio_sfx_   sound_gbstudio_sfx_sav
     00000002  ___mute_mask_sound_gbstudio_sfx_   sound_gbstudio_sfx_sav
     00000002  ___mute_mask_sound_gbstudio_sfx_   sound_gbstudio_sfx_sav
     00000002  l__HEADER5                      
     00000002  l__HEADERc                      
     00000002  l__HEADERf                      
     00000003  ___bank_VM_MAIN                    vm
     00000003  ___bank_bg_leaving_earth_tileset   bg_leaving_earth_tileset
     00000003  ___bank_font_gbs_variable_width    font_gbs_variable_width
     00000003  ___bank_scene_sample_town_sprite   scene_sample_town_sprites
     00000003  ___bank_song_rulz_lightmood_0_Da   song_rulz_lightmood_0_Data
     00000003  b_platform_init                    platform
     00000003  b_platform_update                  platform
     00000003  b_script_detach_hthread            vm
     00000003  b_script_execute                   vm
     00000003  b_script_runner_init               vm
     00000003  b_script_terminate                 vm
     00000003  b_vm_call                          vm
     00000003  b_vm_call_far                      vm
     00000003  b_vm_get_indirect                  vm
     00000003  b_vm_get_int16                     vm
     00000003  b_vm_get_int8                      vm
     00000003  b_vm_get_tlocal                    vm
     00000003  b_vm_get_uint8                     vm
     00000003  b_vm_idle                          vm
     00000003  b_vm_if                            vm
     00000003  b_vm_if_const                      vm
     00000003  b_vm_init_rng                      vm
     00000003  b_vm_invoke                        vm
     00000003  b_vm_join                          vm
     00000003  b_vm_jump                          vm
ASxxxx Linker V03.00 + NoICE + sdld,  page 4.
Hexadecimal  [32-Bits]

Area                                    Addr        Size        Decimal Bytes (Attributes)
--------------------------------        ----        ----        ------- ----- ------------
.  .ABS.                            00000000    00000000 =           0. bytes (ABS,CON)

      Value  Global                              Global Defined In Module
      -----  --------------------------------   ------------------------
     00000003  b_vm_lock                          vm
     00000003  b_vm_loop                          vm
     00000003  b_vm_memcpy                        vm
     00000003  b_vm_memset                        vm
     00000003  b_vm_poll_loaded                   vm
     00000003  b_vm_pop                           vm
     00000003  b_vm_push                          vm
     00000003  b_vm_push_reference                vm
     00000003  b_vm_push_value                    vm
     00000003  b_vm_push_value_ind                vm
     00000003  b_vm_raise                         vm
     00000003  b_vm_rand                          vm
     00000003  b_vm_reserve                       vm
     00000003  b_vm_ret                           vm
     00000003  b_vm_ret_far                       vm
     00000003  b_vm_set                           vm
     00000003  b_vm_set_const                     vm
     00000003  b_vm_set_const_int16               vm
     00000003  b_vm_set_const_int8                vm
     00000003  b_vm_set_indirect                  vm
     00000003  b_vm_set_int16                     vm
     00000003  b_vm_set_int8                      vm
     00000003  b_vm_set_uint8                     vm
     00000003  b_vm_terminate                     vm
     00000003  b_vm_test_terminate                vm
     00000003  b_vm_unlock                        vm
     00000003  b_wait_frames                      vm
     00000003  l__HEADER8                      
     00000003  l__HEADER_LCD0                  
     00000003  l__HRAM12                       
     00000004  ___bank_bg_sample_town_tilemap_a   bg_sample_town_tilemap_attr
     00000004  ___bank_bg_town_tilemap            bg_town_tilemap
     00000004  ___bank_bg_town_tilemap_attr       bg_town_tilemap_attr
     00000004  ___bank_scene_21_collisions        scene_21_collisions
     00000004  ___bank_scene_21_init              scene_21_init
     00000004  b_do_load_palette                  data_manager
     00000004  b_load_background                  data_manager
     00000004  b_load_bkg_tileset                 data_manager
     00000004  b_load_bounds                      data_manager
     00000004  b_load_emote                       data_manager
     00000004  b_load_init                        data_manager
     00000004  b_load_player                      data_manager
     00000004  b_load_scene                       data_manager
     00000004  b_load_sprite                      data_manager
     00000004  l__CRASH_HEADER1                
     00000004  l__HEADER_SIO0                  
     00000004  l__HEADER_TIMER0                
     00000005  ___bank_bg_parallax_tileset        bg_parallax_tileset
     00000005  ___bank_bg_police_station_tilese   bg_police_station_tileset
     00000005  ___bank_bg_sample_town_tilemap     bg_sample_town_tilemap
     00000005  ___bank_bg_town_tileset            bg_town_tileset
ASxxxx Linker V03.00 + NoICE + sdld,  page 5.
Hexadecimal  [32-Bits]

Area                                    Addr        Size        Decimal Bytes (Attributes)
--------------------------------        ----        ----        ------- ----- ------------
.  .ABS.                            00000000    00000000 =           0. bytes (ABS,CON)

      Value  Global                              Global Defined In Module
      -----  --------------------------------   ------------------------
     00000005  ___bank_scene_24_sprites           scene_24_sprites
     00000005  ___bank_scene_sample_town_collis   scene_sample_town_collisions
     00000005  ___bank_trigger_fight_interact     trigger_fight_interact
     00000005  l__CRASH_HEADER0                
     00000005  l__HEADER1                      
     00000006  ___bank_bg_highway_tileset         bg_highway_tileset
     00000006  ___bank_bg_hotelstreet_tileset     bg_hotelstreet_tileset
     00000006  ___bank_bg_platform_path_tilemap   bg_platform_path_tilemap
     00000006  ___bank_bg_platform_path_tilemap   bg_platform_path_tilemap_att
     00000006  ___bank_bg_titlescreen_tileset     bg_titlescreen_tileset
     00000006  ___bank_scene_battle_sprites       scene_battle_sprites
     00000006  ___bank_sprite_inside_seven_elev   sprite_inside_seven_eleven_t
     00000006  l__HEADER7                      
     00000007  ___bank_VM_MATH                    vm_math
     00000007  ___bank_bg_city_hall_proto_tiles   bg_city_hall_proto_tileset
     00000007  ___bank_scene_battle_init          scene_battle_init
     00000007  ___bank_scene_path_to_sample_tow   scene_path_to_sample_town_co
     00000007  ___bank_script_17                  script_17
     00000007  ___bank_song_rulz_battletheme_0_   song_rulz_battletheme_0_Data
     00000007  ___bank_song_rulz_fastpacespeedr   song_rulz_fastpacespeedrace_
     00000007  b_vm_cos_scale                     vm_math
     00000007  b_vm_sin_scale                     vm_math
     00000007  l__HEADER2                      
     00000008  ___bank_VM_UI                      vm_ui
     00000008  ___bank_actor_47_interact          actor_47_interact
     00000008  ___bank_bg_insidestation2_tilese   bg_insidestation2_tileset
     00000008  ___bank_bg_menu_page1_tileset      bg_menu_page1_tileset
     00000008  ___bank_bg_overworld_pixelnook_i   bg_overworld_pixelnook_indu_
     00000008  ___bank_bg_overworld_playground_   bg_overworld_playground_pix_
     00000008  ___bank_bg_restr_tileset           bg_restr_tileset
     00000008  ___bank_scene_26_triggers          scene_26_triggers
     00000008  ___bank_song_rulz_pause_undergro   song_rulz_pause_underground_
     00000008  ___mute_mask_sound_gbstudio_sfx_   sound_gbstudio_sfx_sav
     00000008  ___mute_mask_sound_gbstudio_sfx_   sound_gbstudio_sfx_sav
     00000008  ___mute_mask_sound_legacy_0        sound_legacy_0
     00000008  b_adventure_init                   adventure
     00000008  b_adventure_update                 adventure
     00000008  b_vm_choice                        vm_ui
     00000008  b_vm_display_text                  vm_ui
     00000008  b_vm_overlay_clear                 vm_ui
     00000008  b_vm_overlay_move_to               vm_ui
     00000008  b_vm_overlay_scroll                vm_ui
     00000008  b_vm_overlay_set_map               vm_ui
     00000008  b_vm_overlay_set_scroll            vm_ui
     00000008  b_vm_overlay_set_submap            vm_ui
     00000008  b_vm_overlay_set_submap_ex         vm_ui
     00000008  b_vm_overlay_setpos                vm_ui
     00000008  b_vm_overlay_show                  vm_ui
     00000008  b_vm_overlay_wait                  vm_ui
     00000008  b_vm_set_font                      vm_ui
     00000008  b_vm_set_text_sound                vm_ui
ASxxxx Linker V03.00 + NoICE + sdld,  page 6.
Hexadecimal  [32-Bits]

Area                                    Addr        Size        Decimal Bytes (Attributes)
--------------------------------        ----        ----        ------- ----- ------------
.  .ABS.                            00000000    00000000 =           0. bytes (ABS,CON)

      Value  Global                              Global Defined In Module
      -----  --------------------------------   ------------------------
     00000008  b_vm_switch_text_layer             vm_ui
     00000008  l__HEADER3                      
     00000009  ___bank_VM_GAMEBOY                 vm_gameboy
     00000009  ___bank_bg_highway_tilemap         bg_highway_tilemap
     00000009  ___bank_bg_hotelstreet_tilemap_a   bg_hotelstreet_tilemap_attr
     00000009  ___bank_bg_logo_tileset            bg_logo_tileset
     00000009  ___bank_bg_placeholder1_tileset    bg_placeholder1_tileset
     00000009  ___bank_song_rulz_undergroundcav   song_rulz_undergroundcave_0_
     00000009  b_gbprinter_detect                 gbprinter
     00000009  b_gbprinter_print_overlay          gbprinter
     00000009  b_logo_init                        logo
     00000009  b_logo_update                      logo
     00000009  b_scroll_init                      scroll
     00000009  b_scroll_repaint                   scroll
     00000009  b_scroll_reset                     scroll
     00000009  b_scroll_update                    scroll
     00000009  b_shmup_init                       shmup
     00000009  b_shmup_update                     shmup
     00000009  b_topdown_init                     topdown
     00000009  b_topdown_update                   topdown
     00000009  b_vm_context_prepare               vm_gameboy
     00000009  b_vm_fade                          vm_gameboy
     00000009  b_vm_get_tile_xy                   vm_gameboy
     00000009  b_vm_input_attach                  vm_gameboy
     00000009  b_vm_input_detach                  vm_gameboy
     00000009  b_vm_input_get                     vm_gameboy
     00000009  b_vm_input_wait                    vm_gameboy
     00000009  b_vm_load_tiles                    vm_gameboy
     00000009  b_vm_load_tileset                  vm_gameboy
     00000009  b_vm_poll                          vm_gameboy
     00000009  b_vm_replace_tile                  vm_gameboy
     00000009  b_vm_replace_tile_xy               vm_gameboy
     00000009  b_vm_rumble                        vm_gameboy
     00000009  b_vm_set_sprite_mode               vm_gameboy
     00000009  b_vm_set_sprites_visible           vm_gameboy
     00000009  b_vm_timer_prepare                 vm_gameboy
     00000009  b_vm_timer_reset                   vm_gameboy
     00000009  b_vm_timer_set                     vm_gameboy
     00000009  b_vm_timer_stop                    vm_gameboy
     0000000A  ___bank_bg_hotelstreet_tilemap     bg_hotelstreet_tilemap
     0000000A  ___bank_bg_overworld_pixelnook_i   bg_overworld_pixelnook_indu_
     0000000A  ___bank_bg_overworld_pixelnook_i   bg_overworld_pixelnook_indu_
     0000000A  ___bank_bg_overworld_playground_   bg_overworld_playground_pix_
     0000000A  ___bank_bg_overworld_playground_   bg_overworld_playground_pix_
     0000000A  ___bank_bg_restr_tilemap           bg_restr_tilemap
     0000000A  ___bank_bg_restr_tilemap_attr      bg_restr_tilemap_attr
     0000000A  ___bank_scene_25_collisions        scene_25_collisions
     0000000A  ___bank_scene_26_collisions        scene_26_collisions
     0000000A  ___bank_scene_28_collisions        scene_28_collisions
     0000000A  ___bank_trigger_38_interact        trigger_38_interact
     0000000A  ___mute_mask_sound_gbstudio_sfx_   sound_gbstudio_sfx_sav
ASxxxx Linker V03.00 + NoICE + sdld,  page 7.
Hexadecimal  [32-Bits]

Area                                    Addr        Size        Decimal Bytes (Attributes)
--------------------------------        ----        ----        ------- ----- ------------
.  .ABS.                            00000000    00000000 =           0. bytes (ABS,CON)

      Value  Global                              Global Defined In Module
      -----  --------------------------------   ------------------------
     0000000B  ___bank_actor_74_interact          actor_74_interact
     0000000B  ___bank_bg_cave_tileset            bg_cave_tileset
     0000000B  ___bank_bg_house2_tileset          bg_house2_tileset
     0000000B  ___bank_bg_launch_site_tileset     bg_launch_site_tileset
     0000000B  ___bank_bg_parallax_tilemap        bg_parallax_tilemap
     0000000B  ___bank_bg_parallax_tilemap_attr   bg_parallax_tilemap_attr
     0000000B  ___bank_scene_29_collisions        scene_29_collisions
     0000000B  ___bank_scene_30_collisions        scene_30_collisions
     0000000B  ___bank_scene_menu_page_1_sprite   scene_menu_page_1_sprites
     0000000B  ___bank_scene_parallax_example_c   scene_parallax_example_colli
     0000000B  ___bank_song_drum_example_Data     song_drum_example_Data
     0000000B  ___bank_song_echo_example_Data     song_echo_example_Data
     0000000B  ___bank_song_rulz_intro_0_Data     song_rulz_intro_0_Data
     0000000C  ___bank_bg_city_hall_proto_tilem   bg_city_hall_proto_tilemap
     0000000C  ___bank_bg_city_hall_proto_tilem   bg_city_hall_proto_tilemap_a
     0000000C  ___bank_bg_outside_tilemap         bg_outside_tilemap
     0000000C  ___bank_bg_outside_tilemap_attr    bg_outside_tilemap_attr
     0000000C  ___bank_bg_police_station_tilema   bg_police_station_tilemap
     0000000C  ___bank_bg_police_station_tilema   bg_police_station_tilemap_at
     0000000C  ___bank_bg_sample_town_tileset     bg_sample_town_tileset
     0000000C  ___bank_bg_stars_tilemap           bg_stars_tilemap
     0000000C  ___bank_bg_underground_tilemap     bg_underground_tilemap
     0000000C  ___bank_bg_underground_tilemap_a   bg_underground_tilemap_attr
     0000000C  ___bank_scene_menu_3_init          scene_menu_3_init
     0000000C  ___bank_song_rulz_outside_0_Data   song_rulz_outside_0_Data
     0000000C  ___bank_song_rulz_spaceemergency   song_rulz_spaceemergency_0_D
     0000000C  ___bank_trigger_28_interact        trigger_28_interact
     0000000C  ___bank_trigger_switchy_interact   trigger_switchy_interact
     0000000C  b_projectile_launch                projectiles
     0000000C  b_projectiles_init                 projectiles
     0000000D  ___bank_VM_SIO                     vm_sio
     0000000D  ___bank_actor_angry_guy_interact   actor_angry_guy_interact
     0000000D  ___bank_bg_outside_tileset         bg_outside_tileset
     0000000D  ___bank_bg_platform_path_tileset   bg_platform_path_tileset
     0000000D  ___bank_scene_17_init              scene_17_init
     0000000D  ___bank_scene_20_collisions        scene_20_collisions
     0000000D  ___bank_scene_21_actors            scene_21_actors
     0000000D  ___bank_scene_22_collisions        scene_22_collisions
     0000000D  ___bank_scene_27_collisions        scene_27_collisions
     0000000D  ___bank_scene_deep_space_collisi   scene_deep_space_collisions
     0000000D  ___bank_scene_space_battle_actor   scene_space_battle_actors
     0000000D  ___bank_scene_underground_collis   scene_underground_collisions
     0000000D  ___bank_sound_gbstudio_sfx_sav_0   sound_gbstudio_sfx_sav
     0000000D  ___bank_sound_gbstudio_sfx_sav_0   sound_gbstudio_sfx_sav
     0000000D  ___bank_sound_gbstudio_sfx_sav_0   sound_gbstudio_sfx_sav
     0000000D  ___bank_sound_gbstudio_sfx_sav_0   sound_gbstudio_sfx_sav
     0000000D  ___bank_sound_gbstudio_sfx_sav_0   sound_gbstudio_sfx_sav
     0000000D  ___bank_sound_gbstudio_sfx_sav_0   sound_gbstudio_sfx_sav
     0000000D  ___bank_sound_gbstudio_sfx_sav_0   sound_gbstudio_sfx_sav
     0000000D  ___bank_sound_gbstudio_sfx_sav_0   sound_gbstudio_sfx_sav
     0000000D  ___bank_sound_gbstudio_sfx_sav_0   sound_gbstudio_sfx_sav
ASxxxx Linker V03.00 + NoICE + sdld,  page 8.
Hexadecimal  [32-Bits]

Area                                    Addr        Size        Decimal Bytes (Attributes)
--------------------------------        ----        ----        ------- ----- ------------
.  .ABS.                            00000000    00000000 =           0. bytes (ABS,CON)

      Value  Global                              Global Defined In Module
      -----  --------------------------------   ------------------------
     0000000D  ___bank_sound_gbstudio_sfx_sav_0   sound_gbstudio_sfx_sav
     0000000D  ___bank_sprite_elephant_tileset    sprite_elephant_tileset
     0000000D  b___HandleCrash_banked             
     0000000D  b_core_reset                       core
     0000000D  b_core_run                         core
     0000000D  b_data_clear                       load_save
     0000000D  b_data_init                        load_save
     0000000D  b_data_load                        load_save
     0000000D  b_data_peek                        load_save
     0000000D  b_data_save                        load_save
     0000000D  b_pointnclick_init                 pointnclick
     0000000D  b_pointnclick_update               pointnclick
     0000000D  b_trigger_activate_at              trigger
     0000000D  b_trigger_activate_at_intersecti   trigger
     0000000D  b_trigger_at_intersection          trigger
     0000000D  b_trigger_at_tile                  trigger
     0000000D  b_trigger_interact                 trigger
     0000000D  b_trigger_reset                    trigger
     0000000D  b_vm_sio_exchange                  vm_sio
     0000000D  b_vm_sio_set_mode                  vm_sio
     0000000E  ___bank_VM_CAMERA                  vm_camera
     0000000E  ___bank_VM_PALETTE                 vm_palette
     0000000E  ___bank_actor_31_update            actor_31_update
     0000000E  ___bank_actor_50_interact          actor_50_interact
     0000000E  ___bank_actor_57_update            actor_57_update
     0000000E  ___bank_actor_64_update            actor_64_update
     0000000E  ___bank_actor_76_update            actor_76_update
     0000000E  ___bank_actor_gardener_interact    actor_gardener_interact
     0000000E  ___bank_actor_space_dog_interact   actor_space_dog_interact
     0000000E  ___bank_bg_hidden_cave_tilemap     bg_hidden_cave_tilemap
     0000000E  ___bank_bg_hidden_cave_tilemap_a   bg_hidden_cave_tilemap_attr
     0000000E  ___bank_bg_menu_page2_tileset      bg_menu_page2_tileset
     0000000E  ___bank_bg_underground_tileset     bg_underground_tileset
     0000000E  ___bank_scene_17_actors            scene_17_actors
     0000000E  ___bank_scene_24_collisions        scene_24_collisions
     0000000E  ___bank_scene_28_actors            scene_28_actors
     0000000E  ___bank_scene_deeper_underground   scene_deeper_underground_col
     0000000E  ___bank_scene_menu_3_actors        scene_menu_3_actors
     0000000E  ___bank_scene_sample_town_actors   scene_sample_town_actors
     0000000E  ___bank_script_15                  script_15
     0000000E  ___bank_sprite_blackplayer_tiles   sprite_blackplayer_tileset
     0000000E  ___bank_sprite_elephant            sprite_elephant
     0000000E  ___bank_sprite_guybymonkeyimage_   sprite_guybymonkeyimage_tile
     0000000E  ___bank_sprite_inside_seven_elev   sprite_inside_seven_eleven_t
     0000000E  ___bank_sprite_inside_seven_elev   sprite_inside_seven_eleven_t
     0000000E  ___bank_sprite_knight_animated_t   sprite_knight_animated_tiles
     0000000E  ___bank_sprite_npc003_tileset      sprite_npc003_tileset
     0000000E  ___bank_sprite_player_platform     sprite_player_platform
     0000000E  ___bank_sprite_player_platform_t   sprite_player_platform_tiles
     0000000E  ___bank_sprite_woman_platform_ti   sprite_woman_platform_tilese
     0000000E  ___bank_trigger_69_interact        trigger_69_interact
ASxxxx Linker V03.00 + NoICE + sdld,  page 9.
Hexadecimal  [32-Bits]

Area                                    Addr        Size        Decimal Bytes (Attributes)
--------------------------------        ----        ----        ------- ----- ------------
.  .ABS.                            00000000    00000000 =           0. bytes (ABS,CON)

      Value  Global                              Global Defined In Module
      -----  --------------------------------   ------------------------
     0000000E  b_camera_shake_frames              vm_camera
     0000000E  b_fade_applypalettechange          fade_manager
     0000000E  b_fade_in                          fade_manager
     0000000E  b_fade_in_modal                    fade_manager
     0000000E  b_fade_init                        fade_manager
     0000000E  b_fade_out                         fade_manager
     0000000E  b_fade_out_modal                   fade_manager
     0000000E  b_fade_setspeed                    fade_manager
     0000000E  b_fade_update                      fade_manager
     0000000E  b_set_sgb_border                   sgb_border
     0000000E  b_vm_camera_move_to                vm_camera
     0000000E  b_vm_camera_set_pos                vm_camera
     0000000E  b_vm_load_palette                  vm_palette
     0000000F  ___bank_VM_MUSIC                   vm_music
     0000000F  ___bank_actor_56_interact          actor_56_interact
     0000000F  ___bank_bg_black_tilemap           bg_black_tilemap
     0000000F  ___bank_bg_cave_tilemap            bg_cave_tilemap
     0000000F  ___bank_bg_cave_tilemap_attr       bg_cave_tilemap_attr
     0000000F  ___bank_bg_hidden_cave_tileset     bg_hidden_cave_tileset
     0000000F  ___bank_bg_house2_tilemap          bg_house2_tilemap
     0000000F  ___bank_bg_house_tilemap           bg_house_tilemap
     0000000F  ___bank_bg_house_tilemap_attr      bg_house_tilemap_attr
     0000000F  ___bank_bg_insidestation2_tilema   bg_insidestation2_tilemap
     0000000F  ___bank_bg_insidestation2_tilema   bg_insidestation2_tilemap_at
     0000000F  ___bank_bg_launch_site_tilemap     bg_launch_site_tilemap
     0000000F  ___bank_bg_launch_site_tilemap_a   bg_launch_site_tilemap_attr
     0000000F  ___bank_bg_logo_tilemap            bg_logo_tilemap
     0000000F  ___bank_bg_menu_page1_tilemap      bg_menu_page1_tilemap
     0000000F  ___bank_bg_menu_page2_tilemap      bg_menu_page2_tilemap
     0000000F  ___bank_bg_menu_tilemap            bg_menu_tilemap
     0000000F  ___bank_bg_placeholder1_tilemap    bg_placeholder1_tilemap
     0000000F  ___bank_bg_placeholder1_tilemap_   bg_placeholder1_tilemap_attr
     0000000F  ___bank_bg_room_tilemap            bg_room_tilemap
     0000000F  ___bank_bg_room_tilemap_attr       bg_room_tilemap_attr
     0000000F  ___bank_bg_stars_tileset           bg_stars_tileset
     0000000F  ___bank_bg_titlescreen_tilemap     bg_titlescreen_tilemap
     0000000F  ___bank_bg_titlescreen_tilemap_a   bg_titlescreen_tilemap_attr
     0000000F  ___bank_scene_17_collisions        scene_17_collisions
     0000000F  ___bank_scene_23_collisions        scene_23_collisions
     0000000F  ___bank_scene_battle_collisions    scene_battle_collisions
     0000000F  ___bank_scene_cave_actors          scene_cave_actors
     0000000F  ___bank_scene_cave_collisions      scene_cave_collisions
     0000000F  ___bank_scene_dream_collisions     scene_dream_collisions
     0000000F  ___bank_scene_launch_site_collis   scene_launch_site_collisions
     0000000F  ___bank_scene_logo_collisions      scene_logo_collisions
     0000000F  ___bank_scene_menu_3_collisions    scene_menu_3_collisions
     0000000F  ___bank_scene_menu_page_1_actors   scene_menu_page_1_actors
     0000000F  ___bank_scene_menu_page_1_collis   scene_menu_page_1_collisions
     0000000F  ___bank_scene_menu_page_2_collis   scene_menu_page_2_collisions
     0000000F  ___bank_scene_player_s_house_col   scene_player_s_house_collisi
     0000000F  ___bank_scene_title_screen_colli   scene_title_screen_collision
ASxxxx Linker V03.00 + NoICE + sdld,  page 10.
Hexadecimal  [32-Bits]

Area                                    Addr        Size        Decimal Bytes (Attributes)
--------------------------------        ----        ----        ------- ----- ------------
.  .ABS.                            00000000    00000000 =           0. bytes (ABS,CON)

      Value  Global                              Global Defined In Module
      -----  --------------------------------   ------------------------
     0000000F  ___bank_scene_top_house_collisio   scene_top_house_collisions
     0000000F  ___bank_sprite_enemy_ship_tilese   sprite_enemy_ship_tileset
     0000000F  ___bank_sprite_npc004_tileset      sprite_npc004_tileset
     0000000F  ___bank_sprite_npc005_tileset      sprite_npc005_tileset
     0000000F  ___bank_sprite_npc006_tileset      sprite_npc006_tileset
     0000000F  ___bank_sprite_player_tileset      sprite_player_tileset
     0000000F  ___bank_sprite_robot_tileset       sprite_robot_tileset
     0000000F  ___bank_sprite_space_mine_tilese   sprite_space_mine_tileset
     0000000F  b_vm_music_mute                    vm_music
     0000000F  b_vm_music_play                    vm_music
     0000000F  b_vm_music_routine                 vm_music
     0000000F  b_vm_music_setpos                  vm_music
     0000000F  b_vm_music_stop                    vm_music
     0000000F  b_vm_sfx_play                      vm_music
     0000000F  b_vm_sound_mastervol               vm_music
     00000010  ___bank_VM_GBPRINTER               vm_gbprinter
     00000010  ___bank_VM_PROJECTILE              vm_projectiles
     00000010  ___bank_VM_RTC                     vm_rtc
     00000010  ___bank_VM_SCENE                   vm_scene
     00000010  ___bank_actor_20_interact          actor_20_interact
     00000010  ___bank_actor_33_interact          actor_33_interact
     00000010  ___bank_actor_39_update            actor_39_update
     00000010  ___bank_actor_41_interact          actor_41_interact
     00000010  ___bank_actor_46_interact          actor_46_interact
     00000010  ___bank_actor_53_update            actor_53_update
     00000010  ___bank_actor_54_update            actor_54_update
     00000010  ___bank_actor_58_interact          actor_58_interact
     00000010  ___bank_actor_59_interact          actor_59_interact
     00000010  ___bank_actor_72_interact          actor_72_interact
     00000010  ___bank_actor_73_interact          actor_73_interact
     00000010  ___bank_actor_81_interact          actor_81_interact
     00000010  ___bank_actor_82_update            actor_82_update
     00000010  ___bank_actor_83_update            actor_83_update
     00000010  ___bank_actor_hider_interact       actor_hider_interact
     00000010  ___bank_actor_ice_block_interact   actor_ice_block_interact
     00000010  ___bank_actor_pet_owner_update     actor_pet_owner_update
     00000010  ___bank_actor_radio_guy_interact   actor_radio_guy_interact
     00000010  ___bank_actor_sage_interact        actor_sage_interact
     00000010  ___bank_actor_save_point_0_inter   actor_save_point_0_interact
     00000010  ___bank_actor_save_point_1_inter   actor_save_point_1_interact
     00000010  ___bank_actor_save_point_interac   actor_save_point_interact
     00000010  ___bank_actor_sign_post_2_intera   actor_sign_post_2_interact
     00000010  ___bank_bg_house_tileset           bg_house_tileset
     00000010  ___bank_scene_22_actors            scene_22_actors
     00000010  ___bank_scene_23_init              scene_23_init
     00000010  ___bank_scene_26_actors            scene_26_actors
     00000010  ___bank_scene_28_init              scene_28_init
     00000010  ___bank_scene_30_actors            scene_30_actors
     00000010  ___bank_scene_battle_actors        scene_battle_actors
     00000010  ___bank_scene_launch_site_actors   scene_launch_site_actors
     00000010  ___bank_scene_menu_page_1_init     scene_menu_page_1_init
ASxxxx Linker V03.00 + NoICE + sdld,  page 11.
Hexadecimal  [32-Bits]

Area                                    Addr        Size        Decimal Bytes (Attributes)
--------------------------------        ----        ----        ------- ----- ------------
.  .ABS.                            00000000    00000000 =           0. bytes (ABS,CON)

      Value  Global                              Global Defined In Module
      -----  --------------------------------   ------------------------
     00000010  ___bank_scene_menu_page_2_actors   scene_menu_page_2_actors
     00000010  ___bank_scene_path_to_sample_tow   scene_path_to_sample_town_ac
     00000010  ___bank_scene_path_to_sample_tow   scene_path_to_sample_town_in
     00000010  ___bank_scene_title_screen_init    scene_title_screen_init
     00000010  ___bank_scene_underground_actors   scene_underground_actors
     00000010  ___bank_script_16                  script_16
     00000010  ___bank_script_enemy_ship_moveme   script_enemy_ship_movement_
     00000010  ___bank_script_enemy_ship_moveme   script_enemy_ship_movement__
     00000010  ___bank_script_enemy_ship_moveme   script_enemy_ship_movement__
     00000010  ___bank_script_enemy_ship_moveme   script_enemy_ship_movement__
     00000010  ___bank_script_turnip_collisions   script_turnip_collisions
     00000010  ___bank_sprite_baldguybymonkeyim   sprite_baldguybymonkeyimage_
     00000010  ___bank_sprite_blackplayer         sprite_blackplayer
     00000010  ___bank_sprite_chest               sprite_chest
     00000010  ___bank_sprite_fire_tileset        sprite_fire_tileset
     00000010  ___bank_sprite_guybymonkeyimage    sprite_guybymonkeyimage
     00000010  ___bank_sprite_knight_animated     sprite_knight_animated
     00000010  ___bank_sprite_npc001_tileset      sprite_npc001_tileset
     00000010  ___bank_sprite_npc002_tileset      sprite_npc002_tileset
     00000010  ___bank_sprite_npc007_tileset      sprite_npc007_tileset
     00000010  ___bank_sprite_npc008_tileset      sprite_npc008_tileset
     00000010  ___bank_sprite_pc_car_tileset      sprite_pc_car_tileset
     00000010  ___bank_sprite_player_ship_tiles   sprite_player_ship_tileset
     00000010  ___bank_sprite_portal_tileset      sprite_portal_tileset
     00000010  ___bank_sprite_turnip_tileset      sprite_turnip_tileset
     00000010  ___bank_sprite_type7_tileset       sprite_type7_tileset
     00000010  ___bank_sprite_ungulate_tileset    sprite_ungulate_tileset
     00000010  ___bank_sprite_williemouse_tiles   sprite_williemouse_tileset
     00000010  ___bank_sprite_woman_platform      sprite_woman_platform
     00000010  ___bank_trigger_13_interact        trigger_13_interact
     00000010  ___bank_trigger_46_interact        trigger_46_interact
     00000010  b_erase_flash                      
     00000010  b_itoa_fmt                         vm_ui_a
     00000010  b_music_events_poll                music_manager
     00000010  b_music_init_driver                music_manager
     00000010  b_music_init_events                music_manager
     00000010  b_save_sram_banks                  
     00000010  b_vm_print_detect                  vm_gbprinter
     00000010  b_vm_print_overlay                 vm_gbprinter
     00000010  b_vm_projectile_launch             vm_projectiles
     00000010  b_vm_projectile_load_type          vm_projectiles
     00000010  b_vm_rtc_get                       vm_rtc
     00000010  b_vm_rtc_latch                     vm_rtc
     00000010  b_vm_rtc_set                       vm_rtc
     00000010  b_vm_rtc_start                     vm_rtc
     00000010  b_vm_scene_pop                     vm_scene
     00000010  b_vm_scene_pop_all                 vm_scene
     00000010  b_vm_scene_push                    vm_scene
     00000010  b_vm_scene_stack_reset             vm_scene
     00000011  ___bank_VM_LOAD_SAVE               vm_load_save
     00000011  ___bank_actor_25_interact          actor_25_interact
ASxxxx Linker V03.00 + NoICE + sdld,  page 12.
Hexadecimal  [32-Bits]

Area                                    Addr        Size        Decimal Bytes (Attributes)
--------------------------------        ----        ----        ------- ----- ------------
.  .ABS.                            00000000    00000000 =           0. bytes (ABS,CON)

      Value  Global                              Global Defined In Module
      -----  --------------------------------   ------------------------
     00000011  ___bank_actor_26_interact          actor_26_interact
     00000011  ___bank_actor_37_interact          actor_37_interact
     00000011  ___bank_actor_40_interact          actor_40_interact
     00000011  ___bank_actor_42_interact          actor_42_interact
     00000011  ___bank_actor_43_interact          actor_43_interact
     00000011  ___bank_actor_44_interact          actor_44_interact
     00000011  ___bank_actor_45_interact          actor_45_interact
     00000011  ___bank_actor_51_interact          actor_51_interact
     00000011  ___bank_actor_55_interact          actor_55_interact
     00000011  ___bank_actor_57_interact          actor_57_interact
     00000011  ___bank_actor_60_interact          actor_60_interact
     00000011  ___bank_actor_61_update            actor_61_update
     00000011  ___bank_actor_62_interact          actor_62_interact
     00000011  ___bank_actor_63_interact          actor_63_interact
     00000011  ___bank_actor_65_interact          actor_65_interact
     00000011  ___bank_actor_68_interact          actor_68_interact
     00000011  ___bank_actor_69_interact          actor_69_interact
     00000011  ___bank_actor_70_interact          actor_70_interact
     00000011  ___bank_actor_71_interact          actor_71_interact
     00000011  ___bank_actor_72_update            actor_72_update
     00000011  ___bank_actor_73_update            actor_73_update
     00000011  ___bank_actor_76_interact          actor_76_interact
     00000011  ___bank_actor_77_interact          actor_77_interact
     00000011  ___bank_actor_78_interact          actor_78_interact
     00000011  ___bank_actor_79_interact          actor_79_interact
     00000011  ___bank_actor_82_interact          actor_82_interact
     00000011  ___bank_actor_86_interact          actor_86_interact
     00000011  ___bank_actor_91_interact          actor_91_interact
     00000011  ___bank_actor_93_interact          actor_93_interact
     00000011  ___bank_actor_cat_interact         actor_cat_interact
     00000011  ___bank_actor_chest_interact       actor_chest_interact
     00000011  ___bank_actor_elephant_interact    actor_elephant_interact
     00000011  ___bank_actor_oblivious_guy_inte   actor_oblivious_guy_interact
     00000011  ___bank_actor_pet_owner_interact   actor_pet_owner_interact
     00000011  ___bank_actor_rock_1_interact      actor_rock_1_interact
     00000011  ___bank_actor_rock_2_interact      actor_rock_2_interact
     00000011  ___bank_actor_rock_3_interact      actor_rock_3_interact
     00000011  ___bank_actor_rock_interact        actor_rock_interact
     00000011  ___bank_actor_scientist_interact   actor_scientist_interact
     00000011  ___bank_actor_scientist_update     actor_scientist_update
     00000011  ___bank_actor_sign_post_0_intera   actor_sign_post_0_interact
     00000011  ___bank_avatar_font_0              avatar_font_0
     00000011  ___bank_bg_menu_tileset            bg_menu_tileset
     00000011  ___bank_frame_image                frame_image
     00000011  ___bank_scene_20_actors            scene_20_actors
     00000011  ___bank_scene_23_actors            scene_23_actors
     00000011  ___bank_scene_25_actors            scene_25_actors
     00000011  ___bank_scene_27_actors            scene_27_actors
     00000011  ___bank_scene_29_actors            scene_29_actors
     00000011  ___bank_scene_30_p_hit1            scene_30_p_hit1
     00000011  ___bank_scene_deep_space_actors    scene_deep_space_actors
ASxxxx Linker V03.00 + NoICE + sdld,  page 13.
Hexadecimal  [32-Bits]

Area                                    Addr        Size        Decimal Bytes (Attributes)
--------------------------------        ----        ----        ------- ----- ------------
.  .ABS.                            00000000    00000000 =           0. bytes (ABS,CON)

      Value  Global                              Global Defined In Module
      -----  --------------------------------   ------------------------
     00000011  ___bank_scene_deeper_underground   scene_deeper_underground_act
     00000011  ___bank_scene_dream_init           scene_dream_init
     00000011  ___bank_scene_logo_init            scene_logo_init
     00000011  ___bank_scene_menu_page_2_init     scene_menu_page_2_init
     00000011  ___bank_scene_menu_page_2_sprite   scene_menu_page_2_sprites
     00000011  ___bank_scene_parallax_example_a   scene_parallax_example_actor
     00000011  ___bank_scene_parallax_example_i   scene_parallax_example_init
     00000011  ___bank_scene_player_s_house_tri   scene_player_s_house_trigger
     00000011  ___bank_scene_sample_town_trigge   scene_sample_town_triggers
     00000011  ___bank_scene_space_battle_init    scene_space_battle_init
     00000011  ___bank_scene_space_battle_p_hit   scene_space_battle_p_hit1
     00000011  ___bank_scene_top_house_actors     scene_top_house_actors
     00000011  ___bank_scene_underground_init     scene_underground_init
     00000011  ___bank_script_turnip_movement     script_turnip_movement
     00000011  ___bank_sprite_ant_tileset         sprite_ant_tileset
     00000011  ___bank_sprite_baldguybymonkeyim   sprite_baldguybymonkeyimage
     00000011  ___bank_sprite_bullet_left_tiles   sprite_bullet_left_tileset
     00000011  ___bank_sprite_bullet_right_tile   sprite_bullet_right_tileset
     00000011  ___bank_sprite_cat_tileset         sprite_cat_tileset
     00000011  ___bank_sprite_chipmunk_tileset    sprite_chipmunk_tileset
     00000011  ___bank_sprite_cursor              sprite_cursor
     00000011  ___bank_sprite_cursor_tileset      sprite_cursor_tileset
     00000011  ___bank_sprite_drumkit_tileset     sprite_drumkit_tileset
     00000011  ___bank_sprite_duck_tileset        sprite_duck_tileset
     00000011  ___bank_sprite_enemy_ship          sprite_enemy_ship
     00000011  ___bank_sprite_ferret_tileset      sprite_ferret_tileset
     00000011  ___bank_sprite_fire                sprite_fire
     00000011  ___bank_sprite_frog_tileset        sprite_frog_tileset
     00000011  ___bank_sprite_gerbil_tileset      sprite_gerbil_tileset
     00000011  ___bank_sprite_hedgehog_tileset    sprite_hedgehog_tileset
     00000011  ___bank_sprite_keyboard_tileset    sprite_keyboard_tileset
     00000011  ___bank_sprite_machine_tileset     sprite_machine_tileset
     00000011  ___bank_sprite_mantis_tileset      sprite_mantis_tileset
     00000011  ___bank_sprite_mouse_tileset       sprite_mouse_tileset
     00000011  ___bank_sprite_npc001              sprite_npc001
     00000011  ___bank_sprite_npc002              sprite_npc002
     00000011  ___bank_sprite_npc003              sprite_npc003
     00000011  ___bank_sprite_npc004              sprite_npc004
     00000011  ___bank_sprite_npc005              sprite_npc005
     00000011  ___bank_sprite_npc006              sprite_npc006
     00000011  ___bank_sprite_npc007              sprite_npc007
     00000011  ___bank_sprite_npc008              sprite_npc008
     00000011  ___bank_sprite_npc_gardener        sprite_npc_gardener
     00000011  ___bank_sprite_npc_gardener_tile   sprite_npc_gardener_tileset
     00000011  ___bank_sprite_pc_car              sprite_pc_car
     00000011  ___bank_sprite_player              sprite_player
     00000011  ___bank_sprite_player_ship         sprite_player_ship
     00000011  ___bank_sprite_pod_door            sprite_pod_door
     00000011  ___bank_sprite_pod_door_tileset    sprite_pod_door_tileset
     00000011  ___bank_sprite_portal              sprite_portal
     00000011  ___bank_sprite_robot               sprite_robot
ASxxxx Linker V03.00 + NoICE + sdld,  page 14.
Hexadecimal  [32-Bits]

Area                                    Addr        Size        Decimal Bytes (Attributes)
--------------------------------        ----        ----        ------- ----- ------------
.  .ABS.                            00000000    00000000 =           0. bytes (ABS,CON)

      Value  Global                              Global Defined In Module
      -----  --------------------------------   ------------------------
     00000011  ___bank_sprite_space_mine          sprite_space_mine
     00000011  ___bank_sprite_squirrel_tileset    sprite_squirrel_tileset
     00000011  ___bank_sprite_turnip              sprite_turnip
     00000011  ___bank_sprite_type2               sprite_type2
     00000011  ___bank_sprite_type2_tileset       sprite_type2_tileset
     00000011  ___bank_sprite_type4               sprite_type4
     00000011  ___bank_sprite_type4_tileset       sprite_type4_tileset
     00000011  ___bank_sprite_type5               sprite_type5
     00000011  ___bank_sprite_type5_tileset       sprite_type5_tileset
     00000011  ___bank_sprite_type6               sprite_type6
     00000011  ___bank_sprite_type6_tileset       sprite_type6_tileset
     00000011  ___bank_sprite_types_tileset       sprite_types_tileset
     00000011  ___bank_sprite_typewater           sprite_typewater
     00000011  ___bank_sprite_typewater_tileset   sprite_typewater_tileset
     00000011  ___bank_sprite_typewood_tileset    sprite_typewood_tileset
     00000011  ___bank_sprite_ungulate            sprite_ungulate
     00000011  ___bank_sprite_williemouse         sprite_williemouse
     00000011  ___bank_trigger_10_interact        trigger_10_interact
     00000011  ___bank_trigger_11_interact        trigger_11_interact
     00000011  ___bank_trigger_20_interact        trigger_20_interact
     00000011  ___bank_trigger_21_interact        trigger_21_interact
     00000011  ___bank_trigger_22_interact        trigger_22_interact
     00000011  ___bank_trigger_31_interact        trigger_31_interact
     00000011  ___bank_trigger_34_interact        trigger_34_interact
     00000011  ___bank_trigger_40_interact        trigger_40_interact
     00000011  ___bank_trigger_7_interact         trigger_7_interact
     00000011  ___bank_trigger_9_interact         trigger_9_interact
     00000011  b_CGBZeroPalette                   palette
     00000011  b_events_init                      events
     00000011  b_palette_init                     palette
     00000011  b_restore_sram                     flasher
     00000011  b_restore_sram_bank                flasher
     00000011  b_save_sram                        flasher
     00000011  b_timers_init                      events
     00000011  b_vm_save_clear                    vm_load_save
     00000011  b_vm_save_peek                     vm_load_save
     00000011  l__EHL_TRAMPOLINE0              
     00000012  ___bank_actor_10_interact          actor_10_interact
     00000012  ___bank_actor_10_update            actor_10_update
     00000012  ___bank_actor_11_interact          actor_11_interact
     00000012  ___bank_actor_11_update            actor_11_update
     00000012  ___bank_actor_12_interact          actor_12_interact
     00000012  ___bank_actor_12_update            actor_12_update
     00000012  ___bank_actor_13_interact          actor_13_interact
     00000012  ___bank_actor_13_update            actor_13_update
     00000012  ___bank_actor_14_interact          actor_14_interact
     00000012  ___bank_actor_14_update            actor_14_update
     00000012  ___bank_actor_15_interact          actor_15_interact
     00000012  ___bank_actor_15_update            actor_15_update
     00000012  ___bank_actor_16_interact          actor_16_interact
     00000012  ___bank_actor_16_update            actor_16_update
ASxxxx Linker V03.00 + NoICE + sdld,  page 15.
Hexadecimal  [32-Bits]

Area                                    Addr        Size        Decimal Bytes (Attributes)
--------------------------------        ----        ----        ------- ----- ------------
.  .ABS.                            00000000    00000000 =           0. bytes (ABS,CON)

      Value  Global                              Global Defined In Module
      -----  --------------------------------   ------------------------
     00000012  ___bank_actor_17_interact          actor_17_interact
     00000012  ___bank_actor_17_update            actor_17_update
     00000012  ___bank_actor_18_interact          actor_18_interact
     00000012  ___bank_actor_19_interact          actor_19_interact
     00000012  ___bank_actor_20_update            actor_20_update
     00000012  ___bank_actor_21_interact          actor_21_interact
     00000012  ___bank_actor_22_interact          actor_22_interact
     00000012  ___bank_actor_23_interact          actor_23_interact
     00000012  ___bank_actor_24_interact          actor_24_interact
     00000012  ___bank_actor_38_interact          actor_38_interact
     00000012  ___bank_actor_39_interact          actor_39_interact
     00000012  ___bank_actor_3_interact           actor_3_interact
     00000012  ___bank_actor_3_update             actor_3_update
     00000012  ___bank_actor_48_interact          actor_48_interact
     00000012  ___bank_actor_48_update            actor_48_update
     00000012  ___bank_actor_49_interact          actor_49_interact
     00000012  ___bank_actor_49_update            actor_49_update
     00000012  ___bank_actor_4_interact           actor_4_interact
     00000012  ___bank_actor_4_update             actor_4_update
     00000012  ___bank_actor_52_interact          actor_52_interact
     00000012  ___bank_actor_53_interact          actor_53_interact
     00000012  ___bank_actor_54_interact          actor_54_interact
     00000012  ___bank_actor_5_interact           actor_5_interact
     00000012  ___bank_actor_5_update             actor_5_update
     00000012  ___bank_actor_64_interact          actor_64_interact
     00000012  ___bank_actor_66_interact          actor_66_interact
     00000012  ___bank_actor_67_interact          actor_67_interact
     00000012  ___bank_actor_6_interact           actor_6_interact
     00000012  ___bank_actor_6_update             actor_6_update
     00000012  ___bank_actor_77_update            actor_77_update
     00000012  ___bank_actor_7_interact           actor_7_interact
     00000012  ___bank_actor_7_update             actor_7_update
     00000012  ___bank_actor_80_interact          actor_80_interact
     00000012  ___bank_actor_83_interact          actor_83_interact
     00000012  ___bank_actor_8_interact           actor_8_interact
     00000012  ___bank_actor_8_update             actor_8_update
     00000012  ___bank_actor_92_interact          actor_92_interact
     00000012  ___bank_actor_94_interact          actor_94_interact
     00000012  ___bank_actor_9_interact           actor_9_interact
     00000012  ___bank_actor_9_update             actor_9_update
     00000012  ___bank_actor_machine_0_interact   actor_machine_0_interact
     00000012  ___bank_actor_machine_1_interact   actor_machine_1_interact
     00000012  ___bank_actor_machine_2_interact   actor_machine_2_interact
     00000012  ___bank_actor_machine_interact     actor_machine_interact
     00000012  ___bank_actor_radio_interact       actor_radio_interact
     00000012  ___bank_actor_sign_post_4_intera   actor_sign_post_4_interact
     00000012  ___bank_actor_sign_post_interact   actor_sign_post_interact
     00000012  ___bank_actor_turnip_1_interact    actor_turnip_1_interact
     00000012  ___bank_actor_turnip_1_update      actor_turnip_1_update
     00000012  ___bank_actor_turnip_2_interact    actor_turnip_2_interact
     00000012  ___bank_actor_turnip_2_update      actor_turnip_2_update
ASxxxx Linker V03.00 + NoICE + sdld,  page 16.
Hexadecimal  [32-Bits]

Area                                    Addr        Size        Decimal Bytes (Attributes)
--------------------------------        ----        ----        ------- ----- ------------
.  .ABS.                            00000000    00000000 =           0. bytes (ABS,CON)

      Value  Global                              Global Defined In Module
      -----  --------------------------------   ------------------------
     00000012  ___bank_actor_turnip_3_interact    actor_turnip_3_interact
     00000012  ___bank_actor_turnip_3_update      actor_turnip_3_update
     00000012  ___bank_bg_black                   bg_black
     00000012  ___bank_bg_black_tileset           bg_black_tileset
     00000012  ___bank_bg_cave                    bg_cave
     00000012  ___bank_bg_city_hall_proto         bg_city_hall_proto
     00000012  ___bank_bg_hidden_cave             bg_hidden_cave
     00000012  ___bank_bg_highway                 bg_highway
     00000012  ___bank_bg_hotelstreet             bg_hotelstreet
     00000012  ___bank_bg_house                   bg_house
     00000012  ___bank_bg_house2                  bg_house2
     00000012  ___bank_bg_insidestation2          bg_insidestation2
     00000012  ___bank_bg_launch_site             bg_launch_site
     00000012  ___bank_bg_leaving_earth           bg_leaving_earth
     00000012  ___bank_bg_logo                    bg_logo
     00000012  ___bank_bg_menu                    bg_menu
     00000012  ___bank_bg_menu_page1              bg_menu_page1
     00000012  ___bank_bg_menu_page2              bg_menu_page2
     00000012  ___bank_bg_outside                 bg_outside
     00000012  ___bank_bg_overworld_pixelnook_i   bg_overworld_pixelnook_indu
     00000012  ___bank_bg_overworld_playground_   bg_overworld_playground_pix
     00000012  ___bank_bg_parallax                bg_parallax
     00000012  ___bank_bg_placeholder1            bg_placeholder1
     00000012  ___bank_bg_platform_path           bg_platform_path
     00000012  ___bank_bg_police_station          bg_police_station
     00000012  ___bank_bg_restr                   bg_restr
     00000012  ___bank_bg_room                    bg_room
     00000012  ___bank_bg_sample_town             bg_sample_town
     00000012  ___bank_bg_stars                   bg_stars
     00000012  ___bank_bg_titlescreen             bg_titlescreen
     00000012  ___bank_bg_town                    bg_town
     00000012  ___bank_bg_underground             bg_underground
     00000012  ___bank_bootstrap_script           
     00000012  ___bank_cursor_image               cursor_image
     00000012  ___bank_emote_anger                emote_anger
     00000012  ___bank_emote_love                 emote_love
     00000012  ___bank_emote_music                emote_music
     00000012  ___bank_emote_pause                emote_pause
     00000012  ___bank_emote_shock                emote_shock
     00000012  ___bank_emote_sweat                emote_sweat
     00000012  ___bank_palette_0                  palette_0
     00000012  ___bank_palette_1                  palette_1
     00000012  ___bank_palette_10                 palette_10
     00000012  ___bank_palette_11                 palette_11
     00000012  ___bank_palette_12                 palette_12
     00000012  ___bank_palette_13                 palette_13
     00000012  ___bank_palette_14                 palette_14
     00000012  ___bank_palette_15                 palette_15
     00000012  ___bank_palette_16                 palette_16
     00000012  ___bank_palette_17                 palette_17
     00000012  ___bank_palette_18                 palette_18
ASxxxx Linker V03.00 + NoICE + sdld,  page 17.
Hexadecimal  [32-Bits]

Area                                    Addr        Size        Decimal Bytes (Attributes)
--------------------------------        ----        ----        ------- ----- ------------
.  .ABS.                            00000000    00000000 =           0. bytes (ABS,CON)

      Value  Global                              Global Defined In Module
      -----  --------------------------------   ------------------------
     00000012  ___bank_palette_19                 palette_19
     00000012  ___bank_palette_2                  palette_2
     00000012  ___bank_palette_20                 palette_20
     00000012  ___bank_palette_21                 palette_21
     00000012  ___bank_palette_3                  palette_3
     00000012  ___bank_palette_4                  palette_4
     00000012  ___bank_palette_5                  palette_5
     00000012  ___bank_palette_6                  palette_6
     00000012  ___bank_palette_7                  palette_7
     00000012  ___bank_palette_8                  palette_8
     00000012  ___bank_palette_9                  palette_9
     00000012  ___bank_scene_17                   scene_17
     00000012  ___bank_scene_17_sprites           scene_17_sprites
     00000012  ___bank_scene_17_triggers          scene_17_triggers
     00000012  ___bank_scene_20                   scene_20
     00000012  ___bank_scene_20_init              scene_20_init
     00000012  ___bank_scene_20_sprites           scene_20_sprites
     00000012  ___bank_scene_20_triggers          scene_20_triggers
     00000012  ___bank_scene_21                   scene_21
     00000012  ___bank_scene_21_sprites           scene_21_sprites
     00000012  ___bank_scene_21_triggers          scene_21_triggers
     00000012  ___bank_scene_22                   scene_22
     00000012  ___bank_scene_22_init              scene_22_init
     00000012  ___bank_scene_22_sprites           scene_22_sprites
     00000012  ___bank_scene_22_triggers          scene_22_triggers
     00000012  ___bank_scene_23                   scene_23
     00000012  ___bank_scene_23_sprites           scene_23_sprites
     00000012  ___bank_scene_23_triggers          scene_23_triggers
     00000012  ___bank_scene_24                   scene_24
     00000012  ___bank_scene_24_actors            scene_24_actors
     00000012  ___bank_scene_24_init              scene_24_init
     00000012  ___bank_scene_24_triggers          scene_24_triggers
     00000012  ___bank_scene_25                   scene_25
     00000012  ___bank_scene_25_init              scene_25_init
     00000012  ___bank_scene_25_sprites           scene_25_sprites
     00000012  ___bank_scene_25_triggers          scene_25_triggers
     00000012  ___bank_scene_26                   scene_26
     00000012  ___bank_scene_26_init              scene_26_init
     00000012  ___bank_scene_26_sprites           scene_26_sprites
     00000012  ___bank_scene_27                   scene_27
     00000012  ___bank_scene_27_init              scene_27_init
     00000012  ___bank_scene_27_sprites           scene_27_sprites
     00000012  ___bank_scene_27_triggers          scene_27_triggers
     00000012  ___bank_scene_28                   scene_28
     00000012  ___bank_scene_28_sprites           scene_28_sprites
     00000012  ___bank_scene_28_triggers          scene_28_triggers
     00000012  ___bank_scene_29                   scene_29
     00000012  ___bank_scene_29_init              scene_29_init
     00000012  ___bank_scene_29_sprites           scene_29_sprites
     00000012  ___bank_scene_29_triggers          scene_29_triggers
     00000012  ___bank_scene_30                   scene_30
ASxxxx Linker V03.00 + NoICE + sdld,  page 18.
Hexadecimal  [32-Bits]

Area                                    Addr        Size        Decimal Bytes (Attributes)
--------------------------------        ----        ----        ------- ----- ------------
.  .ABS.                            00000000    00000000 =           0. bytes (ABS,CON)

      Value  Global                              Global Defined In Module
      -----  --------------------------------   ------------------------
     00000012  ___bank_scene_30_init              scene_30_init
     00000012  ___bank_scene_30_sprites           scene_30_sprites
     00000012  ___bank_scene_30_triggers          scene_30_triggers
     00000012  ___bank_scene_battle               scene_battle
     00000012  ___bank_scene_battle_triggers      scene_battle_triggers
     00000012  ___bank_scene_cave                 scene_cave
     00000012  ___bank_scene_cave_init            scene_cave_init
     00000012  ___bank_scene_cave_sprites         scene_cave_sprites
     00000012  ___bank_scene_cave_triggers        scene_cave_triggers
     00000012  ___bank_scene_deep_space           scene_deep_space
     00000012  ___bank_scene_deep_space_init      scene_deep_space_init
     00000012  ___bank_scene_deep_space_sprites   scene_deep_space_sprites
     00000012  ___bank_scene_deep_space_trigger   scene_deep_space_triggers
     00000012  ___bank_scene_deeper_underground   scene_deeper_underground
     00000012  ___bank_scene_deeper_underground   scene_deeper_underground_ini
     00000012  ___bank_scene_deeper_underground   scene_deeper_underground_spr
     00000012  ___bank_scene_deeper_underground   scene_deeper_underground_tri
     00000012  ___bank_scene_dream                scene_dream
     00000012  ___bank_scene_launch_site          scene_launch_site
     00000012  ___bank_scene_launch_site_init     scene_launch_site_init
     00000012  ___bank_scene_launch_site_sprite   scene_launch_site_sprites
     00000012  ___bank_scene_launch_site_trigge   scene_launch_site_triggers
     00000012  ___bank_scene_logo                 scene_logo
     00000012  ___bank_scene_menu_3               scene_menu_3
     00000012  ___bank_scene_menu_3_sprites       scene_menu_3_sprites
     00000012  ___bank_scene_menu_page_1          scene_menu_page_1
     00000012  ___bank_scene_menu_page_2          scene_menu_page_2
     00000012  ___bank_scene_parallax_example     scene_parallax_example
     00000012  ___bank_scene_parallax_example_s   scene_parallax_example_sprit
     00000012  ___bank_scene_parallax_example_t   scene_parallax_example_trigg
     00000012  ___bank_scene_path_to_sample_tow   scene_path_to_sample_town
     00000012  ___bank_scene_path_to_sample_tow   scene_path_to_sample_town_sp
     00000012  ___bank_scene_path_to_sample_tow   scene_path_to_sample_town_tr
     00000012  ___bank_scene_player_s_house       scene_player_s_house
     00000012  ___bank_scene_player_s_house_ini   scene_player_s_house_init
     00000012  ___bank_scene_sample_town          scene_sample_town
     00000012  ___bank_scene_sample_town_init     scene_sample_town_init
     00000012  ___bank_scene_space_battle         scene_space_battle
     00000012  ___bank_scene_space_battle_proje   scene_space_battle_projectil
     00000012  ___bank_scene_space_battle_sprit   scene_space_battle_sprites
     00000012  ___bank_scene_space_battle_trigg   scene_space_battle_triggers
     00000012  ___bank_scene_title_screen         scene_title_screen
     00000012  ___bank_scene_top_house            scene_top_house
     00000012  ___bank_scene_top_house_init       scene_top_house_init
     00000012  ___bank_scene_top_house_sprites    scene_top_house_sprites
     00000012  ___bank_scene_top_house_triggers   scene_top_house_triggers
     00000012  ___bank_scene_underground          scene_underground
     00000012  ___bank_scene_underground_sprite   scene_underground_sprites
     00000012  ___bank_scene_underground_trigge   scene_underground_triggers
     00000012  ___bank_script_12                  script_12
     00000012  ___bank_script_enemy_ship_destro   script_enemy_ship_destroy
ASxxxx Linker V03.00 + NoICE + sdld,  page 19.
Hexadecimal  [32-Bits]

Area                                    Addr        Size        Decimal Bytes (Attributes)
--------------------------------        ----        ----        ------- ----- ------------
.  .ABS.                            00000000    00000000 =           0. bytes (ABS,CON)

      Value  Global                              Global Defined In Module
      -----  --------------------------------   ------------------------
     00000012  ___bank_script_enemy_ship_hit_pl   script_enemy_ship_hit_playe
     00000012  ___bank_script_engine_init         
     00000012  ___bank_script_init_menu           script_init_menu
     00000012  ___bank_script_init_weapons        script_init_weapons
     00000012  ___bank_script_input_0             script_input_0
     00000012  ___bank_script_input_1             script_input_1
     00000012  ___bank_script_input_2             script_input_2
     00000012  ___bank_script_input_3             script_input_3
     00000012  ___bank_script_turnip_init         script_turnip_init
     00000012  ___bank_sound_legacy_0             sound_legacy_0
     00000012  ___bank_sprite_ant                 sprite_ant
     00000012  ___bank_sprite_bullet_left         sprite_bullet_left
     00000012  ___bank_sprite_bullet_right        sprite_bullet_right
     00000012  ___bank_sprite_cat                 sprite_cat
     00000012  ___bank_sprite_checkbox            sprite_checkbox
     00000012  ___bank_sprite_checkbox_tileset    sprite_checkbox_tileset
     00000012  ___bank_sprite_chest_tileset       sprite_chest_tileset
     00000012  ___bank_sprite_chipmunk            sprite_chipmunk
     00000012  ___bank_sprite_dog                 sprite_dog
     00000012  ___bank_sprite_dog_tileset         sprite_dog_tileset
     00000012  ___bank_sprite_drumkit             sprite_drumkit
     00000012  ___bank_sprite_duck                sprite_duck
     00000012  ___bank_sprite_ferret              sprite_ferret
     00000012  ___bank_sprite_frog                sprite_frog
     00000012  ___bank_sprite_gerbil              sprite_gerbil
     00000012  ___bank_sprite_hedgehog            sprite_hedgehog
     00000012  ___bank_sprite_hidden_stairs       sprite_hidden_stairs
     00000012  ___bank_sprite_hidden_stairs_til   sprite_hidden_stairs_tileset
     00000012  ___bank_sprite_hpbarfull           sprite_hpbarfull
     00000012  ___bank_sprite_hpbarfull_tileset   sprite_hpbarfull_tileset
     00000012  ___bank_sprite_ice                 sprite_ice
     00000012  ___bank_sprite_ice_tileset         sprite_ice_tileset
     00000012  ___bank_sprite_inside_seven_elev   sprite_inside_seven_eleven
     00000012  ___bank_sprite_keyboard            sprite_keyboard
     00000012  ___bank_sprite_machine             sprite_machine
     00000012  ___bank_sprite_mantis              sprite_mantis
     00000012  ___bank_sprite_mouse               sprite_mouse
     00000012  ___bank_sprite_radio               sprite_radio
     00000012  ___bank_sprite_radio_tileset       sprite_radio_tileset
     00000012  ___bank_sprite_rock                sprite_rock
     00000012  ___bank_sprite_rock_tileset        sprite_rock_tileset
     00000012  ___bank_sprite_sage                sprite_sage
     00000012  ___bank_sprite_sage_tileset        sprite_sage_tileset
     00000012  ___bank_sprite_savepoint           sprite_savepoint
     00000012  ___bank_sprite_savepoint_tileset   sprite_savepoint_tileset
     00000012  ___bank_sprite_signpost            sprite_signpost
     00000012  ___bank_sprite_signpost_tileset    sprite_signpost_tileset
     00000012  ___bank_sprite_squirrel            sprite_squirrel
     00000012  ___bank_sprite_torch               sprite_torch
     00000012  ___bank_sprite_torch_tileset       sprite_torch_tileset
     00000012  ___bank_sprite_type7               sprite_type7
ASxxxx Linker V03.00 + NoICE + sdld,  page 20.
Hexadecimal  [32-Bits]

Area                                    Addr        Size        Decimal Bytes (Attributes)
--------------------------------        ----        ----        ------- ----- ------------
.  .ABS.                            00000000    00000000 =           0. bytes (ABS,CON)

      Value  Global                              Global Defined In Module
      -----  --------------------------------   ------------------------
     00000012  ___bank_sprite_types               sprite_types
     00000012  ___bank_sprite_typewood            sprite_typewood
     00000012  ___bank_sprite_ui_weapon           sprite_ui_weapon
     00000012  ___bank_sprite_ui_weapon_tileset   sprite_ui_weapon_tileset
     00000012  ___bank_spritesheet_none           spritesheet_none
     00000012  ___bank_trigger_0_interact         trigger_0_interact
     00000012  ___bank_trigger_14_interact        trigger_14_interact
     00000012  ___bank_trigger_15_interact        trigger_15_interact
     00000012  ___bank_trigger_16_interact        trigger_16_interact
     00000012  ___bank_trigger_17_interact        trigger_17_interact
     00000012  ___bank_trigger_18_interact        trigger_18_interact
     00000012  ___bank_trigger_19_interact        trigger_19_interact
     00000012  ___bank_trigger_1_interact         trigger_1_interact
     00000012  ___bank_trigger_23_interact        trigger_23_interact
     00000012  ___bank_trigger_24_interact        trigger_24_interact
     00000012  ___bank_trigger_25_interact        trigger_25_interact
     00000012  ___bank_trigger_26_interact        trigger_26_interact
     00000012  ___bank_trigger_27_interact        trigger_27_interact
     00000012  ___bank_trigger_29_interact        trigger_29_interact
     00000012  ___bank_trigger_2_interact         trigger_2_interact
     00000012  ___bank_trigger_30_interact        trigger_30_interact
     00000012  ___bank_trigger_32_interact        trigger_32_interact
     00000012  ___bank_trigger_33_interact        trigger_33_interact
     00000012  ___bank_trigger_35_interact        trigger_35_interact
     00000012  ___bank_trigger_36_interact        trigger_36_interact
     00000012  ___bank_trigger_37_interact        trigger_37_interact
     00000012  ___bank_trigger_39_interact        trigger_39_interact
     00000012  ___bank_trigger_3_interact         trigger_3_interact
     00000012  ___bank_trigger_41_interact        trigger_41_interact
     00000012  ___bank_trigger_42_interact        trigger_42_interact
     00000012  ___bank_trigger_43_interact        trigger_43_interact
     00000012  ___bank_trigger_45_interact        trigger_45_interact
     00000012  ___bank_trigger_47_interact        trigger_47_interact
     00000012  ___bank_trigger_48_interact        trigger_48_interact
     00000012  ___bank_trigger_49_interact        trigger_49_interact
     00000012  ___bank_trigger_4_interact         trigger_4_interact
     00000012  ___bank_trigger_50_interact        trigger_50_interact
     00000012  ___bank_trigger_51_interact        trigger_51_interact
     00000012  ___bank_trigger_52_interact        trigger_52_interact
     00000012  ___bank_trigger_53_interact        trigger_53_interact
     00000012  ___bank_trigger_54_interact        trigger_54_interact
     00000012  ___bank_trigger_55_interact        trigger_55_interact
     00000012  ___bank_trigger_56_interact        trigger_56_interact
     00000012  ___bank_trigger_57_interact        trigger_57_interact
     00000012  ___bank_trigger_58_interact        trigger_58_interact
     00000012  ___bank_trigger_59_interact        trigger_59_interact
     00000012  ___bank_trigger_5_interact         trigger_5_interact
     00000012  ___bank_trigger_60_interact        trigger_60_interact
     00000012  ___bank_trigger_61_interact        trigger_61_interact
     00000012  ___bank_trigger_62_interact        trigger_62_interact
     00000012  ___bank_trigger_63_interact        trigger_63_interact
ASxxxx Linker V03.00 + NoICE + sdld,  page 21.
Hexadecimal  [32-Bits]

Area                                    Addr        Size        Decimal Bytes (Attributes)
--------------------------------        ----        ----        ------- ----- ------------
.  .ABS.                            00000000    00000000 =           0. bytes (ABS,CON)

      Value  Global                              Global Defined In Module
      -----  --------------------------------   ------------------------
     00000012  ___bank_trigger_64_interact        trigger_64_interact
     00000012  ___bank_trigger_65_interact        trigger_65_interact
     00000012  ___bank_trigger_66_interact        trigger_66_interact
     00000012  ___bank_trigger_67_interact        trigger_67_interact
     00000012  ___bank_trigger_68_interact        trigger_68_interact
     00000012  ___bank_trigger_6_interact         trigger_6_interact
     00000012  ___bank_trigger_70_interact        trigger_70_interact
     00000012  ___bank_trigger_71_interact        trigger_71_interact
     00000012  ___bank_trigger_72_interact        trigger_72_interact
     00000012  ___bank_trigger_73_interact        trigger_73_interact
     00000012  ___bank_trigger_74_interact        trigger_74_interact
     00000012  ___bank_trigger_75_interact        trigger_75_interact
     00000012  ___bank_trigger_8_interact         trigger_8_interact
     00000012  ___bank_trigger_itemsbattle_inte   trigger_itemsbattle_interact
     00000012  b_SIO_init                         sio
     00000012  b_camera_init                      camera
     00000012  b_camera_reset                     camera
     00000012  b_input_init                       input
     00000012  b_parallax_init                    parallax
     00000012  b_remove_LCD_ISRs                  interrupts
     00000012  b_scroll_rect                      
     00000019  l__INITIALIZED                  
     00000019  l__INITIALIZER                  
     0000001C  __start_save                    
     00000027  l__GSINIT                       
     00000030  l__HEADER6                      
     0000004E  l__HEADER4                      
     00000082  l__HEADER10                     
     000001CB  l__CRASH_SCRATCH2               
     00000200  s__CODE                         
     00000C51  l__CODE                         
     00000E51  s__HOME                         
     0000197F  l__DATA                         
     00002000  _rROMB0                            
     00002C81  l__HOME                         
     00003000  _rROMB1                            
     00003520  l__CODE_18                      
     00003AD2  s__BASE                         
     00003AD2  s__CODE_0                       
     00003AD2  s__INITIALIZER                  
     00003AD2  s__LIT                          
     00003AEB  s__GSINIT                       
     00003B12  s__GSFINAL                      
     00003FFE  l__CODE_14                      
     00003FFF  l__CODE_2                       
     00003FFF  l__CODE_6                       
     00004000  _RTC_SELECT_REG                    vm_rtc
     00004000  _rRAMB                             
     00004000  l__CODE_1                       
     00004000  l__CODE_10                      
     00004000  l__CODE_11                      
ASxxxx Linker V03.00 + NoICE + sdld,  page 22.
Hexadecimal  [32-Bits]

Area                                    Addr        Size        Decimal Bytes (Attributes)
--------------------------------        ----        ----        ------- ----- ------------
.  .ABS.                            00000000    00000000 =           0. bytes (ABS,CON)

      Value  Global                              Global Defined In Module
      -----  --------------------------------   ------------------------
     00004000  l__CODE_12                      
     00004000  l__CODE_13                      
     00004000  l__CODE_15                      
     00004000  l__CODE_16                      
     00004000  l__CODE_17                      
     00004000  l__CODE_3                       
     00004000  l__CODE_4                       
     00004000  l__CODE_5                       
     00004000  l__CODE_7                       
     00004000  l__CODE_8                       
     00004000  l__CODE_9                       
     00006000  _RTC_LATCH_REG                     vm_rtc
     00008000  __VRAM                             
     00008000  __VRAM8000                         
     00008800  __VRAM8800                         
     00009000  __VRAM9000                         
     00009800  __SCRN0                            
     00009C00  __SCRN1                            
     0000A000  _RTC_VALUE_REG                     vm_rtc
     0000A000  __SRAM                             
     0000C000  __RAM                              
     0000C000  _shadow_OAM                     
     0000C0A0  s__DATA                         
     0000D000  __RAMBANK                          
     0000DA1F  s__BSS                          
     0000DA1F  s__INITIALIZED                  
     0000DA38  s__HEAP                         
     0000DF00  .STACK                          
     0000DF00  _shadow_OAM2                       absolute
     0000DFA0  _BkgPalette                        absolute
     0000DFE0  _vwf_tile_data                     absolute
     0000FE00  __OAMRAM                           
     0000FF00  _P1_REG                            
     0000FF00  __IO                               
     0000FF01  _SB_REG                            
     0000FF02  _SC_REG                            
     0000FF04  _DIV_REG                           
     0000FF05  _TIMA_REG                          
     0000FF06  _TMA_REG                           
     0000FF07  _TAC_REG                           
     0000FF0F  _IF_REG                            
     0000FF10  _NR10_REG                          
     0000FF11  _NR11_REG                          
     0000FF12  _NR12_REG                          
     0000FF13  _NR13_REG                          
     0000FF14  _NR14_REG                          
     0000FF16  _NR21_REG                          
     0000FF17  _NR22_REG                          
     0000FF18  _NR23_REG                          
     0000FF19  _NR24_REG                          
     0000FF1A  _NR30_REG                          
ASxxxx Linker V03.00 + NoICE + sdld,  page 23.
Hexadecimal  [32-Bits]

Area                                    Addr        Size        Decimal Bytes (Attributes)
--------------------------------        ----        ----        ------- ----- ------------
.  .ABS.                            00000000    00000000 =           0. bytes (ABS,CON)

      Value  Global                              Global Defined In Module
      -----  --------------------------------   ------------------------
     0000FF1B  _NR31_REG                          
     0000FF1C  _NR32_REG                          
     0000FF1D  _NR33_REG                          
     0000FF1E  _NR34_REG                          
     0000FF20  _NR41_REG                          
     0000FF21  _NR42_REG                          
     0000FF22  _NR43_REG                          
     0000FF23  _NR44_REG                          
     0000FF24  _NR50_REG                          
     0000FF25  _NR51_REG                          
     0000FF26  _NR52_REG                          
     0000FF30  _AUD3WAVE                          
     0000FF30  _PCM_SAMPLE                        
     0000FF30  __AUD3WAVERAM                      
     0000FF40  _LCDC_REG                          
     0000FF41  _STAT_REG                          
     0000FF42  _SCY_REG                           
     0000FF43  _SCX_REG                           
     0000FF44  _LY_REG                            
     0000FF45  _LYC_REG                           
     0000FF46  _DMA_REG                           
     0000FF47  _BGP_REG                           
     0000FF48  _OBP0_REG                          
     0000FF49  _OBP1_REG                          
     0000FF4A  _WY_REG                            
     0000FF4B  _WX_REG                            
     0000FF4D  _KEY1_REG                          
     0000FF4F  _VBK_REG                           
     0000FF51  _HDMA1_REG                         
     0000FF52  _HDMA2_REG                         
     0000FF53  _HDMA3_REG                         
     0000FF54  _HDMA4_REG                         
     0000FF55  _HDMA5_REG                         
     0000FF56  _RP_REG                            
     0000FF68  _BCPS_REG                          
     0000FF69  _BCPD_REG                          
     0000FF6A  _OCPS_REG                          
     0000FF6B  _OCPD_REG                          
     0000FF70  _SVBK_REG                          
     0000FF76  _PCM12_REG                         
     0000FF77  _PCM34_REG                         
     0000FF80  .refresh_OAM                    
     0000FF80  __HRAM                             
     0000FFFF  _IE_REG                            
     00014000  s__CODE_1                       
     00024000  s__CODE_2                       
     00034000  s__CODE_3                       
     00044000  s__CODE_4                       
     00054000  s__CODE_5                       
     00064000  s__CODE_6                       
     00074000  s__CODE_7                       
ASxxxx Linker V03.00 + NoICE + sdld,  page 24.
Hexadecimal  [32-Bits]

Area                                    Addr        Size        Decimal Bytes (Attributes)
--------------------------------        ----        ----        ------- ----- ------------
.  .ABS.                            00000000    00000000 =           0. bytes (ABS,CON)

      Value  Global                              Global Defined In Module
      -----  --------------------------------   ------------------------
     00084000  s__CODE_8                       
     00094000  s__CODE_9                       
     000A4000  s__CODE_10                      
     000B4000  s__CODE_11                      
     000C4000  s__CODE_12                      
     000D4000  s__CODE_13                      
     000E4000  s__CODE_14                      
     000F4000  s__CODE_15                      
     00104000  s__CODE_16                      
     00114000  s__CODE_17                      
     00124000  s__CODE_18                      

ASxxxx Linker V03.00 + NoICE + sdld,  page 25.
Hexadecimal  [32-Bits]

Area                                    Addr        Size        Decimal Bytes (Attributes)
--------------------------------        ----        ----        ------- ----- ------------
_CODE                               00000200    00000C51 =        3153. bytes (REL,CON)

      Value  Global                              Global Defined In Module
      -----  --------------------------------   ------------------------
     00000200  ___HandleCrash                     
     0000020A  _SIO_send_byte                     
     0000021D  _SIO_receive                       
     0000022E  _SetTile                           
     0000023D  _set_win_tile_xy                   
     00000242  _set_bkg_tile_xy                   
     00000265  _GetWinAddr                        
     0000026D  _GetBkgAddr                        
     0000027B  _state_init                        
     00000280  _state_update                      
     000002A2  _ui_time_masks                     
     000002AA  _ui_print_shift_char               
     0000032D  _ui_draw_frame_row                 
     00000336  .ui_draw_frame_row                 
     0000035F  _script_cmds                       vm_instructions
     00000593  _save_signature                    game_signature
     00000597  _start_scene_x                     
     00000599  _start_scene_y                     
     0000059B  _start_scene_dir                   
     0000059C  _start_scene                       
     0000059F  _start_player_move_speed           
     000005A0  _start_player_anim_tick            
     000005A1  _ui_fonts                          
     000005A7  _core_reset_hook                   main
     000005AF  _main                              main
     000005B7  _state_start_fns                   
     000005C9  _state_update_fns                  
     000005DB  _hUGE_init_banked                  hUGEDriver_obj
     000005DF  _hUGE_init                         hUGEDriver_obj
     000005EA  _hUGE_mute_channel_banked          hUGEDriver_obj
     000005EE  _hUGE_mute_channel                 hUGEDriver_obj
     000005FB  _hUGE_set_position_banked          hUGEDriver_obj
     000005FF  _hUGE_set_position                 hUGEDriver_obj
     00000608  hUGE_init                          hUGEDriver_obj
     0000065E  hUGE_mute_channel                  hUGEDriver_obj
     00000854  hUGE_set_position                  hUGEDriver_obj
     000009BC  _hUGE_dosound                      hUGEDriver_obj
     000009BC  _hUGE_dosound_banked               hUGEDriver_obj
     000009BC  hUGE_dosound                       hUGEDriver_obj
     00000CAB  _get_vram_byte                     
     00000CB8  _get_win_tile_xy                   
     00000CC0  _get_bkg_tile_xy                   
     00000CE7  _set_sprite_palette                CGB
     00000CEC  _set_bkg_palette                   CGB
     00000CEF  .set_palette                       CGB
     00000D0E  _set_sprite_palette_entry          CGB
     00000D13  _set_bkg_palette_entry             CGB
     00000D16  .set_palette_entry                 CGB
     00000D32  _hide_sprites_range                Metasprites
     00000D62  .sgb_check                         
ASxxxx Linker V03.00 + NoICE + sdld,  page 26.
Hexadecimal  [32-Bits]

Area                                    Addr        Size        Decimal Bytes (Attributes)
--------------------------------        ----        ----        ------- ----- ------------
_CODE                               00000200    00000C51 =        3153. bytes (REL,CON)

      Value  Global                              Global Defined In Module
      -----  --------------------------------   ------------------------
     00000D62  _sgb_check                         
     00000DAA  _sgb_transfer                      
     00000DAF  .sgb_transfer                      
     00000DF0  ___move_metasprite                 Metasprites
     00000E2F  _cpu_slow                          CGB
     00000E4A  _cpu_fast                          CGB

ASxxxx Linker V03.00 + NoICE + sdld,  page 27.
Hexadecimal  [32-Bits]

Area                                    Addr        Size        Decimal Bytes (Attributes)
--------------------------------        ----        ----        ------- ----- ------------
_HEADER0                            00000000    00000001 =           1. bytes (ABS,CON)

      Value  Global                              Global Defined In Module
      -----  --------------------------------   ------------------------
     00000020  .call_hl                           Runtime

ASxxxx Linker V03.00 + NoICE + sdld,  page 28.
Hexadecimal  [32-Bits]

Area                                    Addr        Size        Decimal Bytes (Attributes)
--------------------------------        ----        ----        ------- ----- ------------
_HEADER1                            00000000    00000005 =           5. bytes (ABS,CON)

      Value  Global                              Global Defined In Module
      -----  --------------------------------   ------------------------
     00000028  .MemsetSmall                       Runtime

ASxxxx Linker V03.00 + NoICE + sdld,  page 29.
Hexadecimal  [32-Bits]

Area                                    Addr        Size        Decimal Bytes (Attributes)
--------------------------------        ----        ----        ------- ----- ------------
_HEADER2                            00000000    00000007 =           7. bytes (ABS,CON)

      Value  Global                              Global Defined In Module
      -----  --------------------------------   ------------------------
     00000030  .MemcpySmall                       Runtime

ASxxxx Linker V03.00 + NoICE + sdld,  page 30.
Hexadecimal  [32-Bits]

Area                                    Addr        Size        Decimal Bytes (Attributes)
--------------------------------        ----        ----        ------- ----- ------------
_HEADER3                            00000000    00000008 =           8. bytes (ABS,CON)

      Value  Global                              Global Defined In Module
      -----  --------------------------------   ------------------------
ASxxxx Linker V03.00 + NoICE + sdld,  page 31.
Hexadecimal  [32-Bits]

Area                                    Addr        Size        Decimal Bytes (Attributes)
--------------------------------        ----        ----        ------- ----- ------------
_HEADER4                            00000000    0000004E =          78. bytes (ABS,CON)

      Value  Global                              Global Defined In Module
      -----  --------------------------------   ------------------------
     00000080  .int                               Runtime
     0000008F  _wait_int_handler                  Runtime
     0000009C  __standard_VBL_handler             Runtime
     000000AC  _refresh_OAM                       Runtime

ASxxxx Linker V03.00 + NoICE + sdld,  page 32.
Hexadecimal  [32-Bits]

Area                                    Addr        Size        Decimal Bytes (Attributes)
--------------------------------        ----        ----        ------- ----- ------------
_HEADER5                            00000000    00000002 =           2. bytes (ABS,CON)

      Value  Global                              Global Defined In Module
      -----  --------------------------------   ------------------------
ASxxxx Linker V03.00 + NoICE + sdld,  page 33.
Hexadecimal  [32-Bits]

Area                                    Addr        Size        Decimal Bytes (Attributes)
--------------------------------        ----        ----        ------- ----- ------------
_HEADER6                            00000000    00000030 =          48. bytes (ABS,CON)

      Value  Global                              Global Defined In Module
      -----  --------------------------------   ------------------------
ASxxxx Linker V03.00 + NoICE + sdld,  page 34.
Hexadecimal  [32-Bits]

Area                                    Addr        Size        Decimal Bytes (Attributes)
--------------------------------        ----        ----        ------- ----- ------------
_HEADER7                            00000000    00000006 =           6. bytes (ABS,CON)

      Value  Global                              Global Defined In Module
      -----  --------------------------------   ------------------------
ASxxxx Linker V03.00 + NoICE + sdld,  page 35.
Hexadecimal  [32-Bits]

Area                                    Addr        Size        Decimal Bytes (Attributes)
--------------------------------        ----        ----        ------- ----- ------------
_HEADER8                            00000000    00000003 =           3. bytes (ABS,CON)

      Value  Global                              Global Defined In Module
      -----  --------------------------------   ------------------------
ASxxxx Linker V03.00 + NoICE + sdld,  page 36.
Hexadecimal  [32-Bits]

Area                                    Addr        Size        Decimal Bytes (Attributes)
--------------------------------        ----        ----        ------- ----- ------------
_HEADER9                            00000000    00000001 =           1. bytes (ABS,CON)

      Value  Global                              Global Defined In Module
      -----  --------------------------------   ------------------------
ASxxxx Linker V03.00 + NoICE + sdld,  page 37.
Hexadecimal  [32-Bits]

Area                                    Addr        Size        Decimal Bytes (Attributes)
--------------------------------        ----        ----        ------- ----- ------------
_HEADERa                            00000000    00000001 =           1. bytes (ABS,CON)

      Value  Global                              Global Defined In Module
      -----  --------------------------------   ------------------------
ASxxxx Linker V03.00 + NoICE + sdld,  page 38.
Hexadecimal  [32-Bits]

Area                                    Addr        Size        Decimal Bytes (Attributes)
--------------------------------        ----        ----        ------- ----- ------------
_HEADERb                            00000000    00000001 =           1. bytes (ABS,CON)

      Value  Global                              Global Defined In Module
      -----  --------------------------------   ------------------------
ASxxxx Linker V03.00 + NoICE + sdld,  page 39.
Hexadecimal  [32-Bits]

Area                                    Addr        Size        Decimal Bytes (Attributes)
--------------------------------        ----        ----        ------- ----- ------------
_HEADERc                            00000000    00000002 =           2. bytes (ABS,CON)

      Value  Global                              Global Defined In Module
      -----  --------------------------------   ------------------------
ASxxxx Linker V03.00 + NoICE + sdld,  page 40.
Hexadecimal  [32-Bits]

Area                                    Addr        Size        Decimal Bytes (Attributes)
--------------------------------        ----        ----        ------- ----- ------------
_HEADERd                            00000000    00000001 =           1. bytes (ABS,CON)

      Value  Global                              Global Defined In Module
      -----  --------------------------------   ------------------------
ASxxxx Linker V03.00 + NoICE + sdld,  page 41.
Hexadecimal  [32-Bits]

Area                                    Addr        Size        Decimal Bytes (Attributes)
--------------------------------        ----        ----        ------- ----- ------------
_HEADERe                            00000000    00000001 =           1. bytes (ABS,CON)

      Value  Global                              Global Defined In Module
      -----  --------------------------------   ------------------------
ASxxxx Linker V03.00 + NoICE + sdld,  page 42.
Hexadecimal  [32-Bits]

Area                                    Addr        Size        Decimal Bytes (Attributes)
--------------------------------        ----        ----        ------- ----- ------------
_HEADERf                            00000000    00000002 =           2. bytes (ABS,CON)

      Value  Global                              Global Defined In Module
      -----  --------------------------------   ------------------------
ASxxxx Linker V03.00 + NoICE + sdld,  page 43.
Hexadecimal  [32-Bits]

Area                                    Addr        Size        Decimal Bytes (Attributes)
--------------------------------        ----        ----        ------- ----- ------------
_HEADER10                           00000000    00000082 =         130. bytes (ABS,CON)

      Value  Global                              Global Defined In Module
      -----  --------------------------------   ------------------------
     00000150  .reset                             Runtime
     00000150  _reset                             Runtime
     00000157  .code_start                        Runtime
     000001B7  _exit                              Runtime
     000001BB  _set_interrupts                    Runtime

ASxxxx Linker V03.00 + NoICE + sdld,  page 44.
Hexadecimal  [32-Bits]

Area                                    Addr        Size        Decimal Bytes (Attributes)
--------------------------------        ----        ----        ------- ----- ------------
_HEADER11                           00000000    00000001 =           1. bytes (ABS,CON)

      Value  Global                              Global Defined In Module
      -----  --------------------------------   ------------------------
ASxxxx Linker V03.00 + NoICE + sdld,  page 45.
Hexadecimal  [32-Bits]

Area                                    Addr        Size        Decimal Bytes (Attributes)
--------------------------------        ----        ----        ------- ----- ------------
_HOME                               00000E51    00002C81 =       11393. bytes (REL,CON)

      Value  Global                              Global Defined In Module
      -----  --------------------------------   ------------------------
     00000E51  .memset_simple                     Runtime
     00000E5A  .memcpy_simple                     Runtime
     00000E77  .remove_VBL                        Runtime
     00000E7A  .remove_int                        Runtime
     00000E97  .add_VBL                           Runtime
     00000E9A  .add_int                           Runtime
     00000EA5  .wait_vbl_done                     Runtime
     00000EA5  _wait_vbl_done                     Runtime
     00000EB5  .display_off                       Runtime
     00000EB5  _display_off                       Runtime
     00000ECD  _remove_VBL                        Runtime
     00000ED8  _add_VBL                           Runtime
     00000EE3  _actors_update                     actor
     000012EC  _SetBankedBkgData                  bankdata
     00001308  _SetBankedSpriteData               bankdata
     00001324  _SetBankedBkgTiles                 bankdata
     00001340  _SetBankedWinTiles                 bankdata
     0000135C  _ReadBankedFarPtr                  bankdata
     00001383  _ReadBankedUWORD                   bankdata
     0000139F  _MemcpyBanked                      bankdata
     000013BB  _MemcpyVRAMBanked                  bankdata
     000013D7  _IndexOfFarPtr                     bankdata
     0000146D  _camera_update                     camera
     000015A0  _load_animations                   data_manager
     000015FF  _events_update                     events
     000016D1  _timers_update                     events
     00001759  _input_update                      input
     00001789  .sio_ISR                           
     000017E3  .timer_ISR                         
     000017F8  _simple_LCD_isr                    interrupts
     00001874  _fullscreen_LCD_isr                interrupts
     000018A0  _VBL_isr                           interrupts
     000018EA  _isqrt                             math
     00001940  _sine_wave                         math
     00001A40  _dir_lookup                        math
     00001A48  _dir_angle_lookup                  math
     00001A4C  _hUGETrackerRoutine                music_manager
     00001A78  _music_events_update               music_manager
     00001AFA  _music_play_isr                    music_manager
     00001BA0  _parallax_LCD_isr                  parallax
     00001BDD  _projectiles_update                projectiles
     0000207C  _projectiles_render                projectiles
     000021EF  _scroll_load_pending_row           scroll
     0000227B  _scroll_load_row                   scroll
     000022F5  _scroll_load_col                   scroll
     00002360  _scroll_load_pending_col           scroll
     000023F1  _set_bkg_submap                    
     00002434  _set_xy_win_submap                 
     00002461  .set_xy_win_submap                 
     0000246A  .set_xy_bkg_submap                 
ASxxxx Linker V03.00 + NoICE + sdld,  page 46.
Hexadecimal  [32-Bits]

Area                                    Addr        Size        Decimal Bytes (Attributes)
--------------------------------        ----        ----        ------- ----- ------------
_HOME                               00000E51    00002C81 =       11393. bytes (REL,CON)

      Value  Global                              Global Defined In Module
      -----  --------------------------------   ------------------------
     00002479  .set_xy_submap                     
     000024BF  _sfx_play_isr                      sfx_player
     00002592  _on_SIO_receive                    sio
     000025D3  _SIO_update                        sio
     0000263A  _ui_update                         ui
     00002769  _vm_sgb_transfer                   vm_sgb
     000027B7  _vm_load_text                      vm_ui
     00002A0C  _vm_switch                         vm
     00002B0F  _vm_beginthread                    vm
     00002C34  _vm_rpn                            vm
     00003376  _vm_get_far                        vm
     000033E0  _vm_call_native                    vm
     000033F3  _VM_STEP                           vm
     00003461  _script_runner_update              vm
     000035CC  _fill_win_rect                     
     000035DE  _rand                              
     000035DE  _randw                             
     00003609  _initrand                          
     0000360B  .initrand                          
     00003614  _get_bkg_data                      
     00003614  _get_win_data                      
     00003661  _get_sprite_data                   
     00003691  __mulsuchar                        mul
     0000369B  __muluschar                        mul
     000036A5  __mulschar                         mul
     000036B7  __muluchar                         mul
     000036C3  __mulint                           mul
     000036E9  _abs                               abs
     000036F8  _set_win_tiles                     
     0000370C  _set_tile_data                     
     00003711  _set_bkg_data                      
     00003711  _set_win_data                      
     00003719  _set_sprite_data                   
     00003749  _reverse                           reverse
     0000377D  ___call__banked                    far_ptr
     0000379A  _to_far_ptr                        far_ptr
     000037D3  _add_LCD                           
     000037DE  .add_LCD                           
     000037E4  _remove_LCD                        
     000037EF  .remove_LCD                        
     000037F5  .fill_rect_wtt                     
     000037FE  .fill_rect_btt                     
     0000384B  .copy_vram                         
     0000385F  _get_data                          
     0000385F  _set_data                          
     0000385F  _vmemcpy                           
     00003872  _fill_bkg_rect                     
     00003884  .padup                             
     00003884  _waitpadup                         
     00003894  .jpad                              
     00003894  _joypad                            
ASxxxx Linker V03.00 + NoICE + sdld,  page 47.
Hexadecimal  [32-Bits]

Area                                    Addr        Size        Decimal Bytes (Attributes)
--------------------------------        ----        ----        ------- ----- ------------
_HOME                               00000E51    00002C81 =       11393. bytes (REL,CON)

      Value  Global                              Global Defined In Module
      -----  --------------------------------   ------------------------
     000038BC  _waitpad                           
     000038BF  .wait_pad                          
     000038C6  ___sdcc_call_hl                    call_hl
     000038C7  ___memcpy                          memcpy
     000038C7  _memcpy                            memcpy
     0000390A  _memset                            memset
     0000393D  .set_xy_wtt                        SetTileMap
     00003946  .set_xy_btt                        SetTileMap
     00003955  .set_xy_tt                         SetTileMap
     00003997  __divsuchar                        div
     000039A4  __modsuchar                        div
     000039AE  __divuschar                        div
     000039C0  __moduschar                        div
     000039D0  __divschar                         div
     000039DC  __modschar                         div
     000039E6  __divsint                          div
     000039F7  __modsint                          div
     00003A06  __divuchar                         div
     00003A12  __moduchar                         div
     00003A1C  __divuint                          div
     00003A2D  __moduint                          div
     00003A3C  .div8                              div
     00003A3C  .mod8                              div
     00003A44  .div16                             div
     00003A44  .mod16                             div
     00003A7A  .divu8                             div
     00003A7A  .modu8                             div
     00003A7D  .divu16                            div
     00003A7D  .modu16                            div
     00003ABE  _set_bkg_tiles                     

ASxxxx Linker V03.00 + NoICE + sdld,  page 48.
Hexadecimal  [32-Bits]

Area                                    Addr        Size        Decimal Bytes (Attributes)
--------------------------------        ----        ----        ------- ----- ------------
_INITIALIZER                        00003AD2    00000019 =          25. bytes (REL,CON)

      Value  Global                              Global Defined In Module
      -----  --------------------------------   ------------------------
ASxxxx Linker V03.00 + NoICE + sdld,  page 49.
Hexadecimal  [32-Bits]

Area                                    Addr        Size        Decimal Bytes (Attributes)
--------------------------------        ----        ----        ------- ----- ------------
_GSINIT                             00003AEB    00000027 =          39. bytes (REL,CON)

      Value  Global                              Global Defined In Module
      -----  --------------------------------   ------------------------
     00003AEB  gsinit                             Runtime

ASxxxx Linker V03.00 + NoICE + sdld,  page 50.
Hexadecimal  [32-Bits]

Area                                    Addr        Size        Decimal Bytes (Attributes)
--------------------------------        ----        ----        ------- ----- ------------
_GSFINAL                            00003B12    00000001 =           1. bytes (REL,CON)

      Value  Global                              Global Defined In Module
      -----  --------------------------------   ------------------------
ASxxxx Linker V03.00 + NoICE + sdld,  page 51.
Hexadecimal  [32-Bits]

Area                                    Addr        Size        Decimal Bytes (Attributes)
--------------------------------        ----        ----        ------- ----- ------------
_DATA                               0000C0A0    0000197F =        6527. bytes (REL,CON)

      Value  Global                              Global Defined In Module
      -----  --------------------------------   ------------------------
     0000C0A0  __cpu                              Runtime
     0000C0A1  __is_GBA                           Runtime
     0000C0A2  .mode                              Runtime
     0000C0A3  .sys_time                          Runtime
     0000C0A3  _sys_time                          Runtime
     0000C0A5  .int_0x40                          Runtime
     0000C0B9  _actors                            actor
     0000C4FD  _actors_active_head                actor
     0000C4FF  _actors_active_tail                actor
     0000C501  _actors_inactive_head              actor
     0000C503  _screen_x                          actor
     0000C504  _screen_y                          actor
     0000C505  _invalid                           actor
     0000C507  _player_moving                     actor
     0000C508  _player_iframes                    actor
     0000C509  _player_collision_actor            actor
     0000C50B  _emote_actor                       actor
     0000C50D  _emote_timer                       actor
     0000C50E  _allocated_hardware_sprites        actor
     0000C51A  _camera_x                          camera
     0000C51C  _camera_y                          camera
     0000C51E  _camera_offset_x                   camera
     0000C51F  _camera_offset_y                   camera
     0000C520  _camera_deadzone_x                 camera
     0000C521  _camera_deadzone_y                 camera
     0000C522  _camera_settings                   camera
     0000C526  _current_scene                     data_manager
     0000C529  _image_bank                        data_manager
     0000C52A  _image_ptr                         data_manager
     0000C52C  _image_attr_bank                   data_manager
     0000C52D  _image_attr_ptr                    data_manager
     0000C52F  _collision_bank                    data_manager
     0000C530  _collision_ptr                     data_manager
     0000C532  _image_tile_width                  data_manager
     0000C533  _image_tile_height                 data_manager
     0000C534  _image_width                       data_manager
     0000C536  _image_height                      data_manager
     0000C538  _sprites_len                       data_manager
     0000C539  _actors_len                        data_manager
     0000C53A  _projectiles_len                   data_manager
     0000C53B  _player_sprite_len                 data_manager
     0000C53C  _scene_type                        data_manager
     0000C53D  _scene_LCD_type                    data_manager
     0000C53E  _scene_stack                       data_manager
     0000C57E  _scene_stack_ptr                   data_manager
     0000C580  _scene_sprites_base_tiles          data_manager
     0000C5C0  _input_events                      events
     0000C5E8  _input_slots                       events
     0000C5F0  _timer_events                      events
     0000C604  _timer_values                      events
ASxxxx Linker V03.00 + NoICE + sdld,  page 52.
Hexadecimal  [32-Bits]

Area                                    Addr        Size        Decimal Bytes (Attributes)
--------------------------------        ----        ----        ------- ----- ------------
_DATA                               0000C0A0    0000197F =        6527. bytes (REL,CON)

      Value  Global                              Global Defined In Module
      -----  --------------------------------   ------------------------
     0000C60C  _fade_running                      fade_manager
     0000C60D  _fade_frames_per_step              fade_manager
     0000C60E  _fade_timer                        fade_manager
     0000C616  _joypads                           input
     0000C61B  _frame_joy                         input
     0000C61C  _last_joy                          input
     0000C61D  _recent_joy                        input
     0000C61E  _SIO_status                        
     0000C61F  _link_byte_sent                    
     0000C620  _link_next_mode                    
     0000C621  _save_blob_size                    load_save
     0000C623  _routine_queue                     music_manager
     0000C627  _routine_queue_head                music_manager
     0000C628  _routine_queue_tail                music_manager
     0000C629  _music_events                      music_manager
     0000C63D  _music_current_track_bank          music_manager
     0000C63E  _music_mute_flag                   music_manager
     0000C63F  _music_mute_mask                   music_manager
     0000C640  _music_next_track                  music_manager
     0000C642  _music_current_track               music_manager
     0000C644  _music_play_isr_counter            music_manager
     0000C645  _music_play_isr_pause              music_manager
     0000C646  _music_global_mute_mask            music_manager
     0000C647  _music_sfx_priority                music_manager
     0000C648  _DMG_palette                       palette
     0000C64B  _SprPalette                        palette
     0000C68B  _parallax_rows                     parallax
     0000C69D  _parallax_row                      parallax
     0000C69F  _projectiles                       projectiles
     0000C758  _projectile_defs                   projectiles
     0000C7CB  _projectiles_active_head           projectiles
     0000C7CD  _projectiles_inactive_head         projectiles
     0000C7D4  _scroll_x                          scroll
     0000C7D6  _scroll_y                          scroll
     0000C7D8  _draw_scroll_x                     scroll
     0000C7DA  _draw_scroll_y                     scroll
     0000C7DC  _scroll_x_max                      scroll
     0000C7DE  _scroll_y_max                      scroll
     0000C7E0  _scroll_offset_x                   scroll
     0000C7E1  _scroll_offset_y                   scroll
     0000C7E2  _pending_h_x                       scroll
     0000C7E3  _pending_h_y                       scroll
     0000C7E4  _pending_h_i                       scroll
     0000C7E5  _pending_w_x                       scroll
     0000C7E6  _pending_w_y                       scroll
     0000C7E7  _pending_w_i                       scroll
     0000C7E8  _current_row                       scroll
     0000C7EA  _new_row                           scroll
     0000C7EC  _current_col                       scroll
     0000C7EE  _new_col                           scroll
     0000C7F0  .image_tile_width                  
ASxxxx Linker V03.00 + NoICE + sdld,  page 53.
Hexadecimal  [32-Bits]

Area                                    Addr        Size        Decimal Bytes (Attributes)
--------------------------------        ----        ----        ------- ----- ------------
_DATA                               0000C0A0    0000197F =        6527. bytes (REL,CON)

      Value  Global                              Global Defined In Module
      -----  --------------------------------   ------------------------
     0000C7F1  _sfx_play_bank                     sfx_player
     0000C7F2  _sfx_play_sample                   sfx_player
     0000C7F4  _sfx_frame_skip                    sfx_player
     0000C7F5  _link_operation_mode               sio
     0000C7F6  _link_packet                       sio
     0000C816  _link_packet_len                   sio
     0000C817  _link_packet_ptr                   sio
     0000C819  _link_packet_received              sio
     0000C81A  _link_packet_snd_len               sio
     0000C81B  _link_packet_snd_ptr               sio
     0000C81D  _link_packet_sent                  sio
     0000C81E  __is_CGB                           system
     0000C81F  __is_SGB                           system
     0000C820  __current_ram_bank                 system
     0000C821  _triggers                          trigger
     0000C919  _last_trigger_tx                   trigger
     0000C91A  _last_trigger_ty                   trigger
     0000C91B  _last_trigger                      trigger
     0000C91C  _win_pos_x                         ui
     0000C91D  _win_dest_pos_x                    ui
     0000C91E  _win_pos_y                         ui
     0000C91F  _win_dest_pos_y                    ui
     0000C920  _win_speed                         ui
     0000C921  _text_drawn                        ui
     0000C922  _current_text_speed                ui
     0000C923  _text_wait                         ui
     0000C924  _text_options                      ui
     0000C925  _text_in_speed                     ui
     0000C926  _text_out_speed                    ui
     0000C927  _text_draw_speed                   ui
     0000C928  _text_ff_joypad                    ui
     0000C929  _text_ff                           ui
     0000C92A  _text_bkg_fill                     ui
     0000C92B  _ui_text_data                      ui
     0000CA35  _vwf_current_mask                  ui
     0000CA36  _vwf_current_rotate                ui
     0000CA37  _vwf_inverse_map                   ui
     0000CA38  _vwf_direction                     ui
     0000CA39  _vwf_current_font_desc             ui
     0000CA41  _vwf_current_font_bank             ui
     0000CA42  _vwf_current_font_idx              ui
     0000CA43  _text_render_base_addr             ui
     0000CA45  _text_scroll_addr                  ui
     0000CA47  _text_scroll_width                 ui
     0000CA48  _text_scroll_height                ui
     0000CA49  _text_scroll_fill                  ui
     0000CA4A  _text_sound_mask                   ui
     0000CA4B  _text_sound_bank                   ui
     0000CA4C  _text_sound_data                   ui
     0000CA4E  _overlay_priority                  ui
     0000CA55  __itoa_fmt_len                     vm_ui_a
ASxxxx Linker V03.00 + NoICE + sdld,  page 54.
Hexadecimal  [32-Bits]

Area                                    Addr        Size        Decimal Bytes (Attributes)
--------------------------------        ----        ----        ------- ----- ------------
_DATA                               0000C0A0    0000197F =        6527. bytes (REL,CON)

      Value  Global                              Global Defined In Module
      -----  --------------------------------   ------------------------
     0000CA56  .itoa_fmt_buf                      vm_ui_a
     0000CA59  _CTXS                              vm
     0000CB89  _first_ctx                         vm
     0000CB8B  _free_ctxs                         vm
     0000CB8D  _old_executing_ctx                 vm
     0000CB8F  _executing_ctx                     vm
     0000CB91  _vm_lock_state                     vm
     0000CB92  _vm_loaded_state                   vm
     0000CB93  _vm_exception_code                 vm
     0000CB94  _vm_exception_params_length        vm
     0000CB95  _vm_exception_params_bank          vm
     0000CB96  _vm_exception_params_offset        vm
     0000CB99  _script_memory                     vm
     0000D99F  _grounded                          platform
     0000D9A0  _on_ladder                         platform
     0000D9A1  _pl_vel_x                          platform
     0000D9A3  _pl_vel_y                          platform
     0000D9A5  _plat_min_vel                      platform
     0000D9A7  _plat_walk_vel                     platform
     0000D9A9  _plat_climb_vel                    platform
     0000D9AB  _plat_run_vel                      platform
     0000D9AD  _plat_walk_acc                     platform
     0000D9AF  _plat_run_acc                      platform
     0000D9B1  _plat_dec                          platform
     0000D9B3  _plat_jump_vel                     platform
     0000D9B5  _plat_grav                         platform
     0000D9B7  _plat_hold_grav                    platform
     0000D9B9  _plat_max_fall_vel                 platform
     0000D9BB  _shooter_reached_end               shmup
     0000D9BC  _shooter_dest                      shmup
     0000D9BE  _shooter_direction                 shmup
     0000D9BF  _topdown_grid                      topdown
     0000D9C0  ___rand_seed                       
     0000D9DE  _hUGE_current_wave                 hUGEDriver_obj
     0000D9DE  hUGE_current_wave                  hUGEDriver_obj
     0000D9DF  _hUGE_mute_mask                    hUGEDriver_obj
     0000DA08  ___call_banked_addr                far_ptr
     0000DA08  ___call_banked_ptr                 far_ptr
     0000DA0A  ___call_banked_bank                far_ptr
     0000DA0C  .int_0x48                          
     0000DA1C  ___current_metasprite              Metasprites
     0000DA1E  ___current_base_tile               Metasprites

ASxxxx Linker V03.00 + NoICE + sdld,  page 55.
Hexadecimal  [32-Bits]

Area                                    Addr        Size        Decimal Bytes (Attributes)
--------------------------------        ----        ----        ------- ----- ------------
_INITIALIZED                        0000DA1F    00000019 =          25. bytes (REL,CON)

      Value  Global                              Global Defined In Module
      -----  --------------------------------   ------------------------
     0000DA1F  _fade_style                        fade_manager
     0000DA20  _game_time                         game_time
     0000DA21  _PRN_PKT_START                     gbprinter
     0000DA2F  _hide_sprites                      interrupts
     0000DA30  _show_actors_on_overlay            interrupts
     0000DA31  _overlay_cut_scanline              interrupts
     0000DA32  _triggers_len                      trigger
     0000DA33  _exchange_state                    vm_sio
     0000DA34  _last_hit_trigger                  pointnclick
     0000DA35  _shooter_scroll_speed              shmup
     0000DA36  ___render_shadow_OAM               Metasprites
     0000DA37  __map_tile_offset                  SetTileMap
ASxxxx Linker V03.00 + NoICE + sdld,  page 56.
Hexadecimal  [32-Bits]

Area                                    Addr        Size        Decimal Bytes (Attributes)
--------------------------------        ----        ----        ------- ----- ------------
_HRAM12                             00000000    00000003 =           3. bytes (ABS,CON)

      Value  Global                              Global Defined In Module
      -----  --------------------------------   ------------------------
     0000FF90  __current_bank                     Runtime
     0000FF92  __shadow_OAM_base                  Runtime

ASxxxx Linker V03.00 + NoICE + sdld,  page 57.
Hexadecimal  [32-Bits]

Area                                    Addr        Size        Decimal Bytes (Attributes)
--------------------------------        ----        ----        ------- ----- ------------
_EHL_TRAMPOLINE0                    00000000    00000011 =          17. bytes (ABS,CON)

      Value  Global                              Global Defined In Module
      -----  --------------------------------   ------------------------
     00000008  ___sdcc_bcall_ehl                  

ASxxxx Linker V03.00 + NoICE + sdld,  page 58.
Hexadecimal  [32-Bits]

Area                                    Addr        Size        Decimal Bytes (Attributes)
--------------------------------        ----        ----        ------- ----- ------------
_CODE_1                             00014000    00004000 =       16384. bytes (REL,CON)

      Value  Global                              Global Defined In Module
      -----  --------------------------------   ------------------------
     00014000  ___func_ACTOR                      actor
     00014000  _actors_init                       actor
     0001403A  _emote_offsets                     actor
     00014049  _emote_metasprite                  actor
     00014055  _player_init                       actor
     0001406A  _deactivate_actor                  actor
     000141DB  _activate_actor                    actor
     0001431A  _activate_actors_in_row            actor
     00014411  _activate_actors_in_col            actor
     00014562  _actor_set_frames                  actor
     000145B6  _actor_set_frame_offset            actor
     000145F3  _actor_get_frame_offset            actor
     00014606  _actor_set_anim_idle               actor
     00014634  _actor_set_anim_moving             actor
     00014665  _actor_set_dir                     actor
     000146CA  _actor_at_tile                     actor
     000147A0  _actor_in_front_of_player          actor
     00014887  _actor_overlapping_player          actor
     00014B20  _actor_overlapping_bb              actor
     00014D3F  _actors_handle_player_collision    actor
     00014DCA  _check_collision_in_direction      actor
     000155BA  _ui_swap_tiles                     
     00015604  _ui_print_make_mask_lr             
     00015620  _ui_print_make_mask_rl             
     0001563C  _ui_init                           ui
     0001570B  _ui_load_tiles                     ui
     00015762  _ui_draw_frame                     ui
     000157F6  _ui_print_reset                    ui
     0001584C  _ui_set_start_tile                 ui
     00015878  _ui_print_render                   ui
     00015B19  _ui_draw_text_buffer_char          ui
     0001600D  _ui_run_menu                       ui
     000162CB  _ui_run_modal                      ui
     0001639A  ___func_VM_ACTOR                   vm_actor
     0001639A  _vm_actor_move_to                  vm_actor
     00016D37  _vm_actor_move_cancel              vm_actor
     00016D6D  _vm_actor_activate                 vm_actor
     00016DBF  _vm_actor_deactivate               vm_actor
     00016E10  _vm_actor_terminate_update         vm_actor
     00016E57  _vm_actor_set_dir                  vm_actor
     00016EA0  _vm_actor_set_anim                 vm_actor
     00016F2D  _vm_actor_set_pos                  vm_actor
     00016FA7  _vm_actor_get_pos                  vm_actor
     00017016  _vm_actor_get_dir                  vm_actor
     00017090  _vm_actor_get_angle                vm_actor
     00017111  _vm_actor_emote                    vm_actor
     000171D5  _vm_actor_set_bounds               vm_actor
     00017233  _vm_actor_set_spritesheet          vm_actor
     00017302  _vm_actor_replace_tile             vm_actor
     0001736C  _vm_actor_set_anim_tick            vm_actor
ASxxxx Linker V03.00 + NoICE + sdld,  page 59.
Hexadecimal  [32-Bits]

Area                                    Addr        Size        Decimal Bytes (Attributes)
--------------------------------        ----        ----        ------- ----- ------------
_CODE_1                             00014000    00004000 =       16384. bytes (REL,CON)

      Value  Global                              Global Defined In Module
      -----  --------------------------------   ------------------------
     000173AA  _vm_actor_set_move_speed           vm_actor
     000173E8  _vm_actor_set_anim_frame           vm_actor
     0001742C  _vm_actor_get_anim_frame           vm_actor
     00017475  _vm_actor_set_anim_set             vm_actor
     00017502  _vm_actor_set_spritesheet_by_ref   vm_actor
     00017610  _vm_actor_set_flags                vm_actor
     000176BE  ___func_VM_SGB                     vm_sgb
     000176BE  ___func_bg_room_tileset            bg_room_tileset
     000176BE  _bg_room_tileset                   bg_room_tileset

ASxxxx Linker V03.00 + NoICE + sdld,  page 60.
Hexadecimal  [32-Bits]

Area                                    Addr        Size        Decimal Bytes (Attributes)
--------------------------------        ----        ----        ------- ----- ------------
_CODE_18                            00124000    00003520 =       13600. bytes (REL,CON)

      Value  Global                              Global Defined In Module
      -----  --------------------------------   ------------------------
     00124000  _bootstrap_script                  
     0012400B  _camera_init                       camera
     00124029  _camera_reset                      camera
     00124039  _input_init                        input
     0012405F  _remove_LCD_ISRs                   interrupts
     00124080  _parallax_init                     parallax
     001240A4  _scroll_rect                       
     001240E1  _SIO_init                          sio
     0012410A  _actor_10_interact                 actor_10_interact
     0012413F  _actor_10_update                   actor_10_update
     0012414B  _actor_11_interact                 actor_11_interact
     00124180  _actor_11_update                   actor_11_update
     0012418C  _actor_12_interact                 actor_12_interact
     001241C1  _actor_12_update                   actor_12_update
     001241CD  _actor_13_interact                 actor_13_interact
     00124202  _actor_13_update                   actor_13_update
     0012420E  _actor_14_interact                 actor_14_interact
     00124243  _actor_14_update                   actor_14_update
     0012424F  _actor_15_interact                 actor_15_interact
     00124284  _actor_15_update                   actor_15_update
     00124290  _actor_16_interact                 actor_16_interact
     001242C5  _actor_16_update                   actor_16_update
     001242D1  _actor_17_interact                 actor_17_interact
     00124306  _actor_17_update                   actor_17_update
     00124312  _actor_18_interact                 actor_18_interact
     0012433A  _actor_19_interact                 actor_19_interact
     00124362  _actor_20_update                   actor_20_update
     00124387  _actor_21_interact                 actor_21_interact
     0012438F  _actor_22_interact                 actor_22_interact
     00124397  _actor_23_interact                 actor_23_interact
     0012439F  _actor_24_interact                 actor_24_interact
     001243A7  _actor_3_interact                  actor_3_interact
     001243D9  _actor_3_update                    actor_3_update
     001243E5  _actor_38_interact                 actor_38_interact
     0012442B  _actor_39_interact                 actor_39_interact
     00124457  _actor_4_interact                  actor_4_interact
     00124489  _actor_4_update                    actor_4_update
     00124495  _actor_48_interact                 actor_48_interact
     001244C1  _actor_48_update                   actor_48_update
     001244CD  _actor_49_interact                 actor_49_interact
     001244F9  _actor_49_update                   actor_49_update
     00124505  _actor_5_interact                  actor_5_interact
     00124537  _actor_5_update                    actor_5_update
     00124543  _actor_52_interact                 actor_52_interact
     00124589  _actor_53_interact                 actor_53_interact
     001245B5  _actor_54_interact                 actor_54_interact
     001245E1  _actor_6_interact                  actor_6_interact
     00124613  _actor_6_update                    actor_6_update
     0012461F  _actor_64_interact                 actor_64_interact
     00124663  _actor_66_interact                 actor_66_interact
ASxxxx Linker V03.00 + NoICE + sdld,  page 61.
Hexadecimal  [32-Bits]

Area                                    Addr        Size        Decimal Bytes (Attributes)
--------------------------------        ----        ----        ------- ----- ------------
_CODE_18                            00124000    00003520 =       13600. bytes (REL,CON)

      Value  Global                              Global Defined In Module
      -----  --------------------------------   ------------------------
     001246A8  _actor_67_interact                 actor_67_interact
     001246F0  _actor_7_interact                  actor_7_interact
     00124722  _actor_7_update                    actor_7_update
     0012472E  _actor_77_update                   actor_77_update
     00124767  _actor_8_interact                  actor_8_interact
     00124799  _actor_8_update                    actor_8_update
     001247A5  _actor_80_interact                 actor_80_interact
     001247ED  _actor_83_interact                 actor_83_interact
     00124819  _actor_9_interact                  actor_9_interact
     0012484B  _actor_9_update                    actor_9_update
     00124857  _actor_92_interact                 actor_92_interact
     00124888  _actor_94_interact                 actor_94_interact
     001248B9  _actor_machine_0_interact          actor_machine_0_interact
     001248E5  _actor_machine_1_interact          actor_machine_1_interact
     00124911  _actor_machine_2_interact          actor_machine_2_interact
     0012493D  _actor_machine_interact            actor_machine_interact
     00124969  _actor_radio_interact              actor_radio_interact
     00124987  _actor_sign_post_4_interact        actor_sign_post_4_interact
     001249BC  _actor_sign_post_interact          actor_sign_post_interact
     00124A00  _actor_turnip_1_interact           actor_turnip_1_interact
     00124A22  _actor_turnip_1_update             actor_turnip_1_update
     00124A2E  _actor_turnip_2_interact           actor_turnip_2_interact
     00124A50  _actor_turnip_2_update             actor_turnip_2_update
     00124A5C  _actor_turnip_3_interact           actor_turnip_3_interact
     00124A7E  _actor_turnip_3_update             actor_turnip_3_update
     00124A8A  ___func_bg_black_tileset           bg_black_tileset
     00124A8A  _bg_black_tileset                  bg_black_tileset
     00124A9C  ___func_bg_black                   bg_black
     00124A9C  _bg_black                          bg_black
     00124AAA  ___func_bg_cave                    bg_cave
     00124AAA  _bg_cave                           bg_cave
     00124AB8  ___func_bg_city_hall_proto         bg_city_hall_proto
     00124AB8  _bg_city_hall_proto                bg_city_hall_proto
     00124AC6  ___func_bg_hidden_cave             bg_hidden_cave
     00124AC6  _bg_hidden_cave                    bg_hidden_cave
     00124AD4  ___func_bg_highway                 bg_highway
     00124AD4  _bg_highway                        bg_highway
     00124AE2  ___func_bg_hotelstreet             bg_hotelstreet
     00124AE2  _bg_hotelstreet                    bg_hotelstreet
     00124AF0  ___func_bg_house                   bg_house
     00124AF0  _bg_house                          bg_house
     00124AFE  ___func_bg_house2                  bg_house2
     00124AFE  _bg_house2                         bg_house2
     00124B0C  ___func_bg_insidestation2          bg_insidestation2
     00124B0C  _bg_insidestation2                 bg_insidestation2
     00124B1A  ___func_bg_launch_site             bg_launch_site
     00124B1A  _bg_launch_site                    bg_launch_site
     00124B28  ___func_bg_leaving_earth           bg_leaving_earth
     00124B28  _bg_leaving_earth                  bg_leaving_earth
     00124B36  ___func_bg_logo                    bg_logo
     00124B36  _bg_logo                           bg_logo
ASxxxx Linker V03.00 + NoICE + sdld,  page 62.
Hexadecimal  [32-Bits]

Area                                    Addr        Size        Decimal Bytes (Attributes)
--------------------------------        ----        ----        ------- ----- ------------
_CODE_18                            00124000    00003520 =       13600. bytes (REL,CON)

      Value  Global                              Global Defined In Module
      -----  --------------------------------   ------------------------
     00124B44  ___func_bg_menu_page1              bg_menu_page1
     00124B44  _bg_menu_page1                     bg_menu_page1
     00124B52  ___func_bg_menu_page2              bg_menu_page2
     00124B52  _bg_menu_page2                     bg_menu_page2
     00124B60  ___func_bg_menu                    bg_menu
     00124B60  _bg_menu                           bg_menu
     00124B6E  ___func_bg_outside                 bg_outside
     00124B6E  _bg_outside                        bg_outside
     00124B7C  ___func_bg_overworld_pixelnook_i   bg_overworld_pixelnook_indu
     00124B7C  _bg_overworld_pixelnook_indu       bg_overworld_pixelnook_indu
     00124B8A  ___func_bg_overworld_playground_   bg_overworld_playground_pix
     00124B8A  _bg_overworld_playground_pix       bg_overworld_playground_pix
     00124B98  ___func_bg_parallax                bg_parallax
     00124B98  _bg_parallax                       bg_parallax
     00124BA6  ___func_bg_placeholder1            bg_placeholder1
     00124BA6  _bg_placeholder1                   bg_placeholder1
     00124BB4  ___func_bg_platform_path           bg_platform_path
     00124BB4  _bg_platform_path                  bg_platform_path
     00124BC2  ___func_bg_police_station          bg_police_station
     00124BC2  _bg_police_station                 bg_police_station
     00124BD0  ___func_bg_restr                   bg_restr
     00124BD0  _bg_restr                          bg_restr
     00124BDE  ___func_bg_room                    bg_room
     00124BDE  _bg_room                           bg_room
     00124BEC  ___func_bg_sample_town             bg_sample_town
     00124BEC  _bg_sample_town                    bg_sample_town
     00124BFA  ___func_bg_stars                   bg_stars
     00124BFA  _bg_stars                          bg_stars
     00124C08  ___func_bg_titlescreen             bg_titlescreen
     00124C08  _bg_titlescreen                    bg_titlescreen
     00124C16  ___func_bg_town                    bg_town
     00124C16  _bg_town                           bg_town
     00124C24  ___func_bg_underground             bg_underground
     00124C24  _bg_underground                    bg_underground
     00124C32  ___func_cursor_image               cursor_image
     00124C32  _cursor_image                      cursor_image
     00124C42  ___func_emote_anger                emote_anger
     00124C42  _emote_anger                       emote_anger
     00124C82  ___func_emote_love                 emote_love
     00124C82  _emote_love                        emote_love
     00124CC2  ___func_emote_music                emote_music
     00124CC2  _emote_music                       emote_music
     00124D02  ___func_emote_pause                emote_pause
     00124D02  _emote_pause                       emote_pause
     00124D42  ___func_emote_shock                emote_shock
     00124D42  _emote_shock                       emote_shock
     00124D82  ___func_emote_sweat                emote_sweat
     00124D82  _emote_sweat                       emote_sweat
     00124DC2  ___func_palette_0                  palette_0
     00124DC2  _palette_0                         palette_0
     00124E05  ___func_palette_1                  palette_1
ASxxxx Linker V03.00 + NoICE + sdld,  page 63.
Hexadecimal  [32-Bits]

Area                                    Addr        Size        Decimal Bytes (Attributes)
--------------------------------        ----        ----        ------- ----- ------------
_CODE_18                            00124000    00003520 =       13600. bytes (REL,CON)

      Value  Global                              Global Defined In Module
      -----  --------------------------------   ------------------------
     00124E05  _palette_1                         palette_1
     00124E48  ___func_palette_10                 palette_10
     00124E48  _palette_10                        palette_10
     00124E8B  ___func_palette_11                 palette_11
     00124E8B  _palette_11                        palette_11
     00124ECE  ___func_palette_12                 palette_12
     00124ECE  _palette_12                        palette_12
     00124F11  ___func_palette_13                 palette_13
     00124F11  _palette_13                        palette_13
     00124F54  ___func_palette_14                 palette_14
     00124F54  _palette_14                        palette_14
     00124F97  ___func_palette_15                 palette_15
     00124F97  _palette_15                        palette_15
     00124FDA  ___func_palette_16                 palette_16
     00124FDA  _palette_16                        palette_16
     0012501D  ___func_palette_17                 palette_17
     0012501D  _palette_17                        palette_17
     00125060  ___func_palette_18                 palette_18
     00125060  _palette_18                        palette_18
     001250A3  ___func_palette_19                 palette_19
     001250A3  _palette_19                        palette_19
     001250E6  ___func_palette_2                  palette_2
     001250E6  _palette_2                         palette_2
     00125129  ___func_palette_20                 palette_20
     00125129  _palette_20                        palette_20
     0012516C  ___func_palette_21                 palette_21
     0012516C  _palette_21                        palette_21
     001251AF  ___func_palette_3                  palette_3
     001251AF  _palette_3                         palette_3
     001251F2  ___func_palette_4                  palette_4
     001251F2  _palette_4                         palette_4
     00125235  ___func_palette_5                  palette_5
     00125235  _palette_5                         palette_5
     00125278  ___func_palette_6                  palette_6
     00125278  _palette_6                         palette_6
     001252BB  ___func_palette_7                  palette_7
     001252BB  _palette_7                         palette_7
     001252FE  ___func_palette_8                  palette_8
     001252FE  _palette_8                         palette_8
     00125341  ___func_palette_9                  palette_9
     00125341  _palette_9                         palette_9
     00125384  ___func_scene_17_sprites           scene_17_sprites
     00125384  _scene_17_sprites                  scene_17_sprites
     00125393  ___func_scene_17_triggers          scene_17_triggers
     00125393  _scene_17_triggers                 scene_17_triggers
     0012539B  ___func_scene_17                   scene_17
     0012539B  _scene_17                          scene_17
     001253D6  _scene_20_init                     scene_20_init
     001253F4  ___func_scene_20_sprites           scene_20_sprites
     001253F4  _scene_20_sprites                  scene_20_sprites
     001253FA  ___func_scene_20_triggers          scene_20_triggers
ASxxxx Linker V03.00 + NoICE + sdld,  page 64.
Hexadecimal  [32-Bits]

Area                                    Addr        Size        Decimal Bytes (Attributes)
--------------------------------        ----        ----        ------- ----- ------------
_CODE_18                            00124000    00003520 =       13600. bytes (REL,CON)

      Value  Global                              Global Defined In Module
      -----  --------------------------------   ------------------------
     001253FA  _scene_20_triggers                 scene_20_triggers
     00125422  ___func_scene_20                   scene_20
     00125422  _scene_20                          scene_20
     0012545D  ___func_scene_21_sprites           scene_21_sprites
     0012545D  _scene_21_sprites                  scene_21_sprites
     0012546F  ___func_scene_21_triggers          scene_21_triggers
     0012546F  _scene_21_triggers                 scene_21_triggers
     0012549F  ___func_scene_21                   scene_21
     0012549F  _scene_21                          scene_21
     001254DA  _scene_22_init                     scene_22_init
     001254F8  ___func_scene_22_sprites           scene_22_sprites
     001254F8  _scene_22_sprites                  scene_22_sprites
     00125507  ___func_scene_22_triggers          scene_22_triggers
     00125507  _scene_22_triggers                 scene_22_triggers
     00125527  ___func_scene_22                   scene_22
     00125527  _scene_22                          scene_22
     00125562  ___func_scene_23_sprites           scene_23_sprites
     00125562  _scene_23_sprites                  scene_23_sprites
     00125568  ___func_scene_23_triggers          scene_23_triggers
     00125568  _scene_23_triggers                 scene_23_triggers
     00125578  ___func_scene_23                   scene_23
     00125578  _scene_23                          scene_23
     001255B3  ___func_scene_24_actors            scene_24_actors
     001255B3  _scene_24_actors                   scene_24_actors
     001255E7  _scene_24_init                     scene_24_init
     001255FD  ___func_scene_24_triggers          scene_24_triggers
     001255FD  _scene_24_triggers                 scene_24_triggers
     0012560D  ___func_scene_24                   scene_24
     0012560D  _scene_24                          scene_24
     00125648  _scene_25_init                     scene_25_init
     00125662  ___func_scene_25_sprites           scene_25_sprites
     00125662  _scene_25_sprites                  scene_25_sprites
     00125668  ___func_scene_25_triggers          scene_25_triggers
     00125668  _scene_25_triggers                 scene_25_triggers
     00125678  ___func_scene_25                   scene_25
     00125678  _scene_25                          scene_25
     001256B3  _scene_26_init                     scene_26_init
     001256CD  ___func_scene_26_sprites           scene_26_sprites
     001256CD  _scene_26_sprites                  scene_26_sprites
     001256D6  ___func_scene_26                   scene_26
     001256D6  _scene_26                          scene_26
     00125711  _scene_27_init                     scene_27_init
     0012572B  ___func_scene_27_sprites           scene_27_sprites
     0012572B  _scene_27_sprites                  scene_27_sprites
     00125734  ___func_scene_27_triggers          scene_27_triggers
     00125734  _scene_27_triggers                 scene_27_triggers
     0012573C  ___func_scene_27                   scene_27
     0012573C  _scene_27                          scene_27
     00125777  ___func_scene_28_sprites           scene_28_sprites
     00125777  _scene_28_sprites                  scene_28_sprites
     00125789  ___func_scene_28_triggers          scene_28_triggers
ASxxxx Linker V03.00 + NoICE + sdld,  page 65.
Hexadecimal  [32-Bits]

Area                                    Addr        Size        Decimal Bytes (Attributes)
--------------------------------        ----        ----        ------- ----- ------------
_CODE_18                            00124000    00003520 =       13600. bytes (REL,CON)

      Value  Global                              Global Defined In Module
      -----  --------------------------------   ------------------------
     00125789  _scene_28_triggers                 scene_28_triggers
     00125799  ___func_scene_28                   scene_28
     00125799  _scene_28                          scene_28
     001257D4  _scene_29_init                     scene_29_init
     001257EE  ___func_scene_29_sprites           scene_29_sprites
     001257EE  _scene_29_sprites                  scene_29_sprites
     001257F4  ___func_scene_29_triggers          scene_29_triggers
     001257F4  _scene_29_triggers                 scene_29_triggers
     001257FC  ___func_scene_29                   scene_29
     001257FC  _scene_29                          scene_29
     00125837  _scene_30_init                     scene_30_init
     00125879  ___func_scene_30_sprites           scene_30_sprites
     00125879  _scene_30_sprites                  scene_30_sprites
     0012587F  ___func_scene_30_triggers          scene_30_triggers
     0012587F  _scene_30_triggers                 scene_30_triggers
     00125887  ___func_scene_30                   scene_30
     00125887  _scene_30                          scene_30
     001258C2  ___func_scene_battle_triggers      scene_battle_triggers
     001258C2  _scene_battle_triggers             scene_battle_triggers
     001258E2  ___func_scene_battle               scene_battle
     001258E2  _scene_battle                      scene_battle
     0012591D  _scene_cave_init                   scene_cave_init
     0012593C  ___func_scene_cave_sprites         scene_cave_sprites
     0012593C  _scene_cave_sprites                scene_cave_sprites
     0012594B  ___func_scene_cave_triggers        scene_cave_triggers
     0012594B  _scene_cave_triggers               scene_cave_triggers
     00125953  ___func_scene_cave                 scene_cave
     00125953  _scene_cave                        scene_cave
     0012598E  _scene_deep_space_init             scene_deep_space_init
     001259B7  ___func_scene_deep_space_sprites   scene_deep_space_sprites
     001259B7  _scene_deep_space_sprites          scene_deep_space_sprites
     001259C0  ___func_scene_deep_space_trigger   scene_deep_space_triggers
     001259C0  _scene_deep_space_triggers         scene_deep_space_triggers
     001259C8  ___func_scene_deep_space           scene_deep_space
     001259C8  _scene_deep_space                  scene_deep_space
     00125A03  _scene_deeper_underground_init     scene_deeper_underground_ini
     00125A38  ___func_scene_deeper_underground   scene_deeper_underground_spr
     00125A38  _scene_deeper_underground_sprite   scene_deeper_underground_spr
     00125A41  ___func_scene_deeper_underground   scene_deeper_underground_tri
     00125A41  _scene_deeper_underground_trigge   scene_deeper_underground_tri
     00125A49  ___func_scene_deeper_underground   scene_deeper_underground
     00125A49  _scene_deeper_underground          scene_deeper_underground
     00125A84  ___func_scene_dream                scene_dream
     00125A84  _scene_dream                       scene_dream
     00125ABF  _scene_launch_site_init            scene_launch_site_init
     00125AE6  ___func_scene_launch_site_sprite   scene_launch_site_sprites
     00125AE6  _scene_launch_site_sprites         scene_launch_site_sprites
     00125AEF  ___func_scene_launch_site_trigge   scene_launch_site_triggers
     00125AEF  _scene_launch_site_triggers        scene_launch_site_triggers
     00125AFF  ___func_scene_launch_site          scene_launch_site
     00125AFF  _scene_launch_site                 scene_launch_site
ASxxxx Linker V03.00 + NoICE + sdld,  page 66.
Hexadecimal  [32-Bits]

Area                                    Addr        Size        Decimal Bytes (Attributes)
--------------------------------        ----        ----        ------- ----- ------------
_CODE_18                            00124000    00003520 =       13600. bytes (REL,CON)

      Value  Global                              Global Defined In Module
      -----  --------------------------------   ------------------------
     00125B3A  ___func_scene_logo                 scene_logo
     00125B3A  _scene_logo                        scene_logo
     00125B75  ___func_scene_menu_3_sprites       scene_menu_3_sprites
     00125B75  _scene_menu_3_sprites              scene_menu_3_sprites
     00125B87  ___func_scene_menu_3               scene_menu_3
     00125B87  _scene_menu_3                      scene_menu_3
     00125BC2  ___func_scene_menu_page_1          scene_menu_page_1
     00125BC2  _scene_menu_page_1                 scene_menu_page_1
     00125BFD  ___func_scene_menu_page_2          scene_menu_page_2
     00125BFD  _scene_menu_page_2                 scene_menu_page_2
     00125C38  ___func_scene_parallax_example_s   scene_parallax_example_sprit
     00125C38  _scene_parallax_example_sprites    scene_parallax_example_sprit
     00125C3E  ___func_scene_parallax_example_t   scene_parallax_example_trigg
     00125C3E  _scene_parallax_example_triggers   scene_parallax_example_trigg
     00125C4E  ___func_scene_parallax_example     scene_parallax_example
     00125C4E  _scene_parallax_example            scene_parallax_example
     00125C89  ___func_scene_path_to_sample_tow   scene_path_to_sample_town_sp
     00125C89  _scene_path_to_sample_town_sprit   scene_path_to_sample_town_sp
     00125C95  ___func_scene_path_to_sample_tow   scene_path_to_sample_town_tr
     00125C95  _scene_path_to_sample_town_trigg   scene_path_to_sample_town_tr
     00125CC5  ___func_scene_path_to_sample_tow   scene_path_to_sample_town
     00125CC5  _scene_path_to_sample_town         scene_path_to_sample_town
     00125D00  _scene_player_s_house_init         scene_player_s_house_init
     00125D23  ___func_scene_player_s_house       scene_player_s_house
     00125D23  _scene_player_s_house              scene_player_s_house
     00125D5E  _scene_sample_town_init            scene_sample_town_init
     00125D89  ___func_scene_sample_town          scene_sample_town
     00125D89  _scene_sample_town                 scene_sample_town
     00125DC4  ___func_scene_space_battle_proje   scene_space_battle_projectil
     00125DC4  _scene_space_battle_projectiles    scene_space_battle_projectil
     00125DF2  ___func_scene_space_battle_sprit   scene_space_battle_sprites
     00125DF2  _scene_space_battle_sprites        scene_space_battle_sprites
     00125E01  ___func_scene_space_battle_trigg   scene_space_battle_triggers
     00125E01  _scene_space_battle_triggers       scene_space_battle_triggers
     00125E09  ___func_scene_space_battle         scene_space_battle
     00125E09  _scene_space_battle                scene_space_battle
     00125E44  ___func_scene_title_screen         scene_title_screen
     00125E44  _scene_title_screen                scene_title_screen
     00125E7F  _scene_top_house_init              scene_top_house_init
     00125E9E  ___func_scene_top_house_sprites    scene_top_house_sprites
     00125E9E  _scene_top_house_sprites           scene_top_house_sprites
     00125EA7  ___func_scene_top_house_triggers   scene_top_house_triggers
     00125EA7  _scene_top_house_triggers          scene_top_house_triggers
     00125EAF  ___func_scene_top_house            scene_top_house
     00125EAF  _scene_top_house                   scene_top_house
     00125EEA  ___func_scene_underground_sprite   scene_underground_sprites
     00125EEA  _scene_underground_sprites         scene_underground_sprites
     00125EF6  ___func_scene_underground_trigge   scene_underground_triggers
     00125EF6  _scene_underground_triggers        scene_underground_triggers
     00125F06  ___func_scene_underground          scene_underground
     00125F06  _scene_underground                 scene_underground
ASxxxx Linker V03.00 + NoICE + sdld,  page 67.
Hexadecimal  [32-Bits]

Area                                    Addr        Size        Decimal Bytes (Attributes)
--------------------------------        ----        ----        ------- ----- ------------
_CODE_18                            00124000    00003520 =       13600. bytes (REL,CON)

      Value  Global                              Global Defined In Module
      -----  --------------------------------   ------------------------
     00125F41  _script_12                         script_12
     00125F4B  _script_enemy_ship_destroy         script_enemy_ship_destroy
     00125F87  _script_enemy_ship_hit_playe       script_enemy_ship_hit_playe
     00125FA4  _script_engine_init                
     00125FEC  _script_init_menu                  script_init_menu
     00125FF6  _script_init_weapons               script_init_weapons
     00126000  _script_input_0                    script_input_0
     00126026  _script_input_1                    script_input_1
     0012604C  _script_input_2                    script_input_2
     0012606E  _script_input_3                    script_input_3
     00126097  _script_turnip_init                script_turnip_init
     001260C6  ___func_sound_legacy_0             sound_legacy_0
     001260C6  _sound_legacy_0                    sound_legacy_0
     001260D9  ___func_sprite_ant                 sprite_ant
     001260D9  _sprite_ant_metasprite_0           sprite_ant
     001260E5  _sprite_ant_metasprite_1           sprite_ant
     001260F1  _sprite_ant_metasprites            sprite_ant
     001260F5  _sprite_ant_animations             sprite_ant
     00126105  _sprite_ant_animations_lookup      sprite_ant
     00126107  _sprite_ant                        sprite_ant
     0012611A  ___func_sprite_bullet_left         sprite_bullet_left
     0012611A  _sprite_bullet_left_metasprite_0   sprite_bullet_left
     00126126  _sprite_bullet_left_metasprite_1   sprite_bullet_left
     00126132  _sprite_bullet_left_metasprites    sprite_bullet_left
     00126136  _sprite_bullet_left_animations     sprite_bullet_left
     00126146  _sprite_bullet_left_animations_l   sprite_bullet_left
     00126148  _sprite_bullet_left                sprite_bullet_left
     0012615B  ___func_sprite_bullet_right        sprite_bullet_right
     0012615B  _sprite_bullet_right_metasprite_   sprite_bullet_right
     00126167  _sprite_bullet_right_metasprite_   sprite_bullet_right
     00126173  _sprite_bullet_right_metasprites   sprite_bullet_right
     00126177  _sprite_bullet_right_animations    sprite_bullet_right
     00126187  _sprite_bullet_right_animations_   sprite_bullet_right
     00126189  _sprite_bullet_right               sprite_bullet_right
     0012619C  ___func_sprite_cat                 sprite_cat
     0012619C  _sprite_cat_metasprite_0           sprite_cat
     001261A8  _sprite_cat_metasprite_1           sprite_cat
     001261B4  _sprite_cat_metasprites            sprite_cat
     001261B8  _sprite_cat_animations             sprite_cat
     001261C8  _sprite_cat_animations_lookup      sprite_cat
     001261CA  _sprite_cat                        sprite_cat
     001261DD  ___func_sprite_checkbox_tileset    sprite_checkbox_tileset
     001261DD  _sprite_checkbox_tileset           sprite_checkbox_tileset
     0012621F  ___func_sprite_checkbox            sprite_checkbox
     0012621F  _sprite_checkbox_metasprite_0      sprite_checkbox
     00126227  _sprite_checkbox_metasprite_1      sprite_checkbox
     0012622F  _sprite_checkbox_metasprites       sprite_checkbox
     00126233  _sprite_checkbox_animations        sprite_checkbox
     00126243  _sprite_checkbox_animations_look   sprite_checkbox
     00126245  _sprite_checkbox                   sprite_checkbox
     00126258  ___func_sprite_chest_tileset       sprite_chest_tileset
ASxxxx Linker V03.00 + NoICE + sdld,  page 68.
Hexadecimal  [32-Bits]

Area                                    Addr        Size        Decimal Bytes (Attributes)
--------------------------------        ----        ----        ------- ----- ------------
_CODE_18                            00124000    00003520 =       13600. bytes (REL,CON)

      Value  Global                              Global Defined In Module
      -----  --------------------------------   ------------------------
     00126258  _sprite_chest_tileset              sprite_chest_tileset
     0012629A  ___func_sprite_chipmunk            sprite_chipmunk
     0012629A  _sprite_chipmunk_metasprite_0      sprite_chipmunk
     001262A6  _sprite_chipmunk_metasprite_1      sprite_chipmunk
     001262B2  _sprite_chipmunk_metasprites       sprite_chipmunk
     001262B6  _sprite_chipmunk_animations        sprite_chipmunk
     001262C6  _sprite_chipmunk_animations_look   sprite_chipmunk
     001262C8  _sprite_chipmunk                   sprite_chipmunk
     001262DB  ___func_sprite_dog_tileset         sprite_dog_tileset
     001262DB  _sprite_dog_tileset                sprite_dog_tileset
     0012631D  ___func_sprite_dog                 sprite_dog
     0012631D  _sprite_dog_metasprite_0           sprite_dog
     00126329  _sprite_dog_metasprite_1           sprite_dog
     00126335  _sprite_dog_metasprites            sprite_dog
     00126339  _sprite_dog_animations             sprite_dog
     00126349  _sprite_dog_animations_lookup      sprite_dog
     0012634B  _sprite_dog                        sprite_dog
     0012635E  ___func_sprite_drumkit             sprite_drumkit
     0012635E  _sprite_drumkit_metasprite_0       sprite_drumkit
     00126372  _sprite_drumkit_metasprites        sprite_drumkit
     00126374  _sprite_drumkit_animations         sprite_drumkit
     00126384  _sprite_drumkit_animations_looku   sprite_drumkit
     00126386  _sprite_drumkit                    sprite_drumkit
     00126399  ___func_sprite_duck                sprite_duck
     00126399  _sprite_duck_metasprite_0          sprite_duck
     001263A5  _sprite_duck_metasprite_1          sprite_duck
     001263B1  _sprite_duck_metasprites           sprite_duck
     001263B5  _sprite_duck_animations            sprite_duck
     001263C5  _sprite_duck_animations_lookup     sprite_duck
     001263C7  _sprite_duck                       sprite_duck
     001263DA  ___func_sprite_ferret              sprite_ferret
     001263DA  _sprite_ferret_metasprite_0        sprite_ferret
     001263E6  _sprite_ferret_metasprite_1        sprite_ferret
     001263F2  _sprite_ferret_metasprites         sprite_ferret
     001263F6  _sprite_ferret_animations          sprite_ferret
     00126406  _sprite_ferret_animations_lookup   sprite_ferret
     00126408  _sprite_ferret                     sprite_ferret
     0012641B  ___func_sprite_frog                sprite_frog
     0012641B  _sprite_frog_metasprite_0          sprite_frog
     00126427  _sprite_frog_metasprite_1          sprite_frog
     00126433  _sprite_frog_metasprites           sprite_frog
     00126437  _sprite_frog_animations            sprite_frog
     00126447  _sprite_frog_animations_lookup     sprite_frog
     00126449  _sprite_frog                       sprite_frog
     0012645C  ___func_sprite_gerbil              sprite_gerbil
     0012645C  _sprite_gerbil_metasprite_0        sprite_gerbil
     00126468  _sprite_gerbil_metasprite_1        sprite_gerbil
     00126474  _sprite_gerbil_metasprites         sprite_gerbil
     00126478  _sprite_gerbil_animations          sprite_gerbil
     00126488  _sprite_gerbil_animations_lookup   sprite_gerbil
     0012648A  _sprite_gerbil                     sprite_gerbil
ASxxxx Linker V03.00 + NoICE + sdld,  page 69.
Hexadecimal  [32-Bits]

Area                                    Addr        Size        Decimal Bytes (Attributes)
--------------------------------        ----        ----        ------- ----- ------------
_CODE_18                            00124000    00003520 =       13600. bytes (REL,CON)

      Value  Global                              Global Defined In Module
      -----  --------------------------------   ------------------------
     0012649D  ___func_sprite_hedgehog            sprite_hedgehog
     0012649D  _sprite_hedgehog_metasprite_0      sprite_hedgehog
     001264A9  _sprite_hedgehog_metasprite_1      sprite_hedgehog
     001264B5  _sprite_hedgehog_metasprites       sprite_hedgehog
     001264B9  _sprite_hedgehog_animations        sprite_hedgehog
     001264C9  _sprite_hedgehog_animations_look   sprite_hedgehog
     001264CB  _sprite_hedgehog                   sprite_hedgehog
     001264DE  ___func_sprite_hidden_stairs_til   sprite_hidden_stairs_tileset
     001264DE  _sprite_hidden_stairs_tileset      sprite_hidden_stairs_tileset
     00126500  ___func_sprite_hidden_stairs       sprite_hidden_stairs
     00126500  _sprite_hidden_stairs_metasprite   sprite_hidden_stairs
     0012650C  _sprite_hidden_stairs_metasprite   sprite_hidden_stairs
     0012650E  _sprite_hidden_stairs_animations   sprite_hidden_stairs
     0012651E  _sprite_hidden_stairs_animations   sprite_hidden_stairs
     00126520  _sprite_hidden_stairs              sprite_hidden_stairs
     00126533  ___func_sprite_hpbarfull_tileset   sprite_hpbarfull_tileset
     00126533  _sprite_hpbarfull_tileset          sprite_hpbarfull_tileset
     00126555  ___func_sprite_hpbarfull           sprite_hpbarfull
     00126555  _sprite_hpbarfull_metasprite_0     sprite_hpbarfull
     0012655D  _sprite_hpbarfull_metasprites      sprite_hpbarfull
     0012655F  _sprite_hpbarfull_animations       sprite_hpbarfull
     0012656F  _sprite_hpbarfull_animations_loo   sprite_hpbarfull
     00126571  _sprite_hpbarfull                  sprite_hpbarfull
     00126584  ___func_sprite_ice_tileset         sprite_ice_tileset
     00126584  _sprite_ice_tileset                sprite_ice_tileset
     001265C6  ___func_sprite_ice                 sprite_ice
     001265C6  _sprite_ice_metasprite_0           sprite_ice
     001265D2  _sprite_ice_metasprites            sprite_ice
     001265D4  _sprite_ice_animations             sprite_ice
     001265E4  _sprite_ice_animations_lookup      sprite_ice
     001265E6  _sprite_ice                        sprite_ice
     001265F9  ___func_sprite_inside_seven_elev   sprite_inside_seven_eleven
     001265F9  _sprite_inside_seven_eleven        sprite_inside_seven_eleven
     00126607  ___func_sprite_keyboard            sprite_keyboard
     00126607  _sprite_keyboard_metasprite_0      sprite_keyboard
     0012661B  _sprite_keyboard_metasprites       sprite_keyboard
     0012661D  _sprite_keyboard_animations        sprite_keyboard
     0012662D  _sprite_keyboard_animations_look   sprite_keyboard
     0012662F  _sprite_keyboard                   sprite_keyboard
     00126642  ___func_sprite_machine             sprite_machine
     00126642  _sprite_machine_metasprite_0       sprite_machine
     0012664E  _sprite_machine_metasprite_1       sprite_machine
     0012665A  _sprite_machine_metasprites        sprite_machine
     0012665E  _sprite_machine_animations         sprite_machine
     0012666E  _sprite_machine_animations_looku   sprite_machine
     00126670  _sprite_machine                    sprite_machine
     00126683  ___func_sprite_mantis              sprite_mantis
     00126683  _sprite_mantis_metasprite_0        sprite_mantis
     0012668F  _sprite_mantis_metasprite_1        sprite_mantis
     0012669B  _sprite_mantis_metasprites         sprite_mantis
     0012669F  _sprite_mantis_animations          sprite_mantis
ASxxxx Linker V03.00 + NoICE + sdld,  page 70.
Hexadecimal  [32-Bits]

Area                                    Addr        Size        Decimal Bytes (Attributes)
--------------------------------        ----        ----        ------- ----- ------------
_CODE_18                            00124000    00003520 =       13600. bytes (REL,CON)

      Value  Global                              Global Defined In Module
      -----  --------------------------------   ------------------------
     001266AF  _sprite_mantis_animations_lookup   sprite_mantis
     001266B1  _sprite_mantis                     sprite_mantis
     001266C4  ___func_sprite_mouse               sprite_mouse
     001266C4  _sprite_mouse_metasprite_0         sprite_mouse
     001266D0  _sprite_mouse_metasprite_1         sprite_mouse
     001266DC  _sprite_mouse_metasprites          sprite_mouse
     001266E0  _sprite_mouse_animations           sprite_mouse
     001266F0  _sprite_mouse_animations_lookup    sprite_mouse
     001266F2  _sprite_mouse                      sprite_mouse
     00126705  ___func_sprite_radio_tileset       sprite_radio_tileset
     00126705  _sprite_radio_tileset              sprite_radio_tileset
     00126747  ___func_sprite_radio               sprite_radio
     00126747  _sprite_radio_metasprite_0         sprite_radio
     00126753  _sprite_radio_metasprites          sprite_radio
     00126755  _sprite_radio_animations           sprite_radio
     00126765  _sprite_radio_animations_lookup    sprite_radio
     00126767  _sprite_radio                      sprite_radio
     0012677A  ___func_sprite_rock_tileset        sprite_rock_tileset
     0012677A  _sprite_rock_tileset               sprite_rock_tileset
     001267BC  ___func_sprite_rock                sprite_rock
     001267BC  _sprite_rock_metasprite_0          sprite_rock
     001267C8  _sprite_rock_metasprites           sprite_rock
     001267CA  _sprite_rock_animations            sprite_rock
     001267DA  _sprite_rock_animations_lookup     sprite_rock
     001267DC  _sprite_rock                       sprite_rock
     001267EF  ___func_sprite_sage_tileset        sprite_sage_tileset
     001267EF  _sprite_sage_tileset               sprite_sage_tileset
     00126831  ___func_sprite_sage                sprite_sage
     00126831  _sprite_sage_metasprite_0          sprite_sage
     0012683D  _sprite_sage_metasprites           sprite_sage
     0012683F  _sprite_sage_animations            sprite_sage
     0012684F  _sprite_sage_animations_lookup     sprite_sage
     00126851  _sprite_sage                       sprite_sage
     00126864  ___func_sprite_savepoint_tileset   sprite_savepoint_tileset
     00126864  _sprite_savepoint_tileset          sprite_savepoint_tileset
     001268A6  ___func_sprite_savepoint           sprite_savepoint
     001268A6  _sprite_savepoint_metasprite_0     sprite_savepoint
     001268B2  _sprite_savepoint_metasprite_1     sprite_savepoint
     001268BE  _sprite_savepoint_metasprites      sprite_savepoint
     001268C2  _sprite_savepoint_animations       sprite_savepoint
     001268D2  _sprite_savepoint_animations_loo   sprite_savepoint
     001268D4  _sprite_savepoint                  sprite_savepoint
     001268E7  ___func_sprite_signpost_tileset    sprite_signpost_tileset
     001268E7  _sprite_signpost_tileset           sprite_signpost_tileset
     00126929  ___func_sprite_signpost            sprite_signpost
     00126929  _sprite_signpost_metasprite_0      sprite_signpost
     00126935  _sprite_signpost_metasprites       sprite_signpost
     00126937  _sprite_signpost_animations        sprite_signpost
     00126947  _sprite_signpost_animations_look   sprite_signpost
     00126949  _sprite_signpost                   sprite_signpost
     0012695C  ___func_sprite_squirrel            sprite_squirrel
ASxxxx Linker V03.00 + NoICE + sdld,  page 71.
Hexadecimal  [32-Bits]

Area                                    Addr        Size        Decimal Bytes (Attributes)
--------------------------------        ----        ----        ------- ----- ------------
_CODE_18                            00124000    00003520 =       13600. bytes (REL,CON)

      Value  Global                              Global Defined In Module
      -----  --------------------------------   ------------------------
     0012695C  _sprite_squirrel_metasprite_0      sprite_squirrel
     00126968  _sprite_squirrel_metasprite_1      sprite_squirrel
     00126974  _sprite_squirrel_metasprites       sprite_squirrel
     00126978  _sprite_squirrel_animations        sprite_squirrel
     00126988  _sprite_squirrel_animations_look   sprite_squirrel
     0012698A  _sprite_squirrel                   sprite_squirrel
     0012699D  ___func_sprite_torch_tileset       sprite_torch_tileset
     0012699D  _sprite_torch_tileset              sprite_torch_tileset
     001269DF  ___func_sprite_torch               sprite_torch
     001269DF  _sprite_torch_metasprite_0         sprite_torch
     001269EB  _sprite_torch_metasprites          sprite_torch
     001269ED  _sprite_torch_animations           sprite_torch
     001269FD  _sprite_torch_animations_lookup    sprite_torch
     001269FF  _sprite_torch                      sprite_torch
     00126A12  ___func_sprite_type7               sprite_type7
     00126A12  _sprite_type7_metasprite_0         sprite_type7
     00126A2E  _sprite_type7_metasprites          sprite_type7
     00126A30  _sprite_type7_animations           sprite_type7
     00126A40  _sprite_type7_animations_lookup    sprite_type7
     00126A42  _sprite_type7                      sprite_type7
     00126A55  ___func_sprite_types               sprite_types
     00126A55  _sprite_types_metasprite_0         sprite_types
     00126A6D  _sprite_types_metasprites          sprite_types
     00126A6F  _sprite_types_animations           sprite_types
     00126A7F  _sprite_types_animations_lookup    sprite_types
     00126A81  _sprite_types                      sprite_types
     00126A94  ___func_sprite_typewood            sprite_typewood
     00126A94  _sprite_typewood_metasprite_0      sprite_typewood
     00126AAC  _sprite_typewood_metasprites       sprite_typewood
     00126AAE  _sprite_typewood_animations        sprite_typewood
     00126ABE  _sprite_typewood_animations_look   sprite_typewood
     00126AC0  _sprite_typewood                   sprite_typewood
     00126AD3  ___func_sprite_ui_weapon_tileset   sprite_ui_weapon_tileset
     00126AD3  _sprite_ui_weapon_tileset          sprite_ui_weapon_tileset
     00126B15  ___func_sprite_ui_weapon           sprite_ui_weapon
     00126B15  _sprite_ui_weapon_metasprite_0     sprite_ui_weapon
     00126B21  _sprite_ui_weapon_metasprites      sprite_ui_weapon
     00126B23  _sprite_ui_weapon_animations       sprite_ui_weapon
     00126B33  _sprite_ui_weapon_animations_loo   sprite_ui_weapon
     00126B35  _sprite_ui_weapon                  sprite_ui_weapon
     00126B48  _spritesheet_none_metasprite       spritesheet_none
     00126B4C  _spritesheet_none_metasprites      spritesheet_none
     00126B4E  _spritesheet_none                  spritesheet_none
     00126B61  _trigger_0_interact                trigger_0_interact
     00126B87  _trigger_1_interact                trigger_1_interact
     00126BAD  _trigger_14_interact               trigger_14_interact
     00126BD3  _trigger_15_interact               trigger_15_interact
     00126BF9  _trigger_16_interact               trigger_16_interact
     00126C1F  _trigger_17_interact               trigger_17_interact
     00126C51  _trigger_18_interact               trigger_18_interact
     00126C77  _trigger_19_interact               trigger_19_interact
ASxxxx Linker V03.00 + NoICE + sdld,  page 72.
Hexadecimal  [32-Bits]

Area                                    Addr        Size        Decimal Bytes (Attributes)
--------------------------------        ----        ----        ------- ----- ------------
_CODE_18                            00124000    00003520 =       13600. bytes (REL,CON)

      Value  Global                              Global Defined In Module
      -----  --------------------------------   ------------------------
     00126CAE  _trigger_2_interact                trigger_2_interact
     00126CD4  _trigger_23_interact               trigger_23_interact
     00126D0D  _trigger_24_interact               trigger_24_interact
     00126D34  _trigger_25_interact               trigger_25_interact
     00126D6A  _trigger_26_interact               trigger_26_interact
     00126D96  _trigger_27_interact               trigger_27_interact
     00126DC7  _trigger_29_interact               trigger_29_interact
     00126DED  _trigger_3_interact                trigger_3_interact
     00126E13  _trigger_30_interact               trigger_30_interact
     00126E3A  _trigger_32_interact               trigger_32_interact
     00126E61  _trigger_33_interact               trigger_33_interact
     00126E9E  _trigger_35_interact               trigger_35_interact
     00126EC4  _trigger_36_interact               trigger_36_interact
     00126EEA  _trigger_37_interact               trigger_37_interact
     00126F10  _trigger_39_interact               trigger_39_interact
     00126F36  _trigger_4_interact                trigger_4_interact
     00126F7E  _trigger_41_interact               trigger_41_interact
     00126FA4  _trigger_42_interact               trigger_42_interact
     00126FEC  _trigger_43_interact               trigger_43_interact
     00127034  _trigger_45_interact               trigger_45_interact
     00127043  _trigger_47_interact               trigger_47_interact
     00127069  _trigger_48_interact               trigger_48_interact
     0012708F  _trigger_49_interact               trigger_49_interact
     001270B5  _trigger_5_interact                trigger_5_interact
     001270FD  _trigger_50_interact               trigger_50_interact
     00127123  _trigger_51_interact               trigger_51_interact
     00127149  _trigger_52_interact               trigger_52_interact
     0012716F  _trigger_53_interact               trigger_53_interact
     00127195  _trigger_54_interact               trigger_54_interact
     001271BB  _trigger_55_interact               trigger_55_interact
     001271E1  _trigger_56_interact               trigger_56_interact
     00127207  _trigger_57_interact               trigger_57_interact
     0012722D  _trigger_58_interact               trigger_58_interact
     00127253  _trigger_59_interact               trigger_59_interact
     00127279  _trigger_6_interact                trigger_6_interact
     0012729F  _trigger_60_interact               trigger_60_interact
     001272C5  _trigger_61_interact               trigger_61_interact
     001272EB  _trigger_62_interact               trigger_62_interact
     00127311  _trigger_63_interact               trigger_63_interact
     00127337  _trigger_64_interact               trigger_64_interact
     0012735D  _trigger_65_interact               trigger_65_interact
     00127383  _trigger_66_interact               trigger_66_interact
     001273A9  _trigger_67_interact               trigger_67_interact
     001273CF  _trigger_68_interact               trigger_68_interact
     001273F5  _trigger_70_interact               trigger_70_interact
     0012741B  _trigger_71_interact               trigger_71_interact
     00127441  _trigger_72_interact               trigger_72_interact
     0012744B  _trigger_73_interact               trigger_73_interact
     00127471  _trigger_74_interact               trigger_74_interact
     00127497  _trigger_75_interact               trigger_75_interact
     001274D0  _trigger_8_interact                trigger_8_interact
ASxxxx Linker V03.00 + NoICE + sdld,  page 73.
Hexadecimal  [32-Bits]

Area                                    Addr        Size        Decimal Bytes (Attributes)
--------------------------------        ----        ----        ------- ----- ------------
_CODE_18                            00124000    00003520 =       13600. bytes (REL,CON)

      Value  Global                              Global Defined In Module
      -----  --------------------------------   ------------------------
     001274F6  _trigger_itemsbattle_interact      trigger_itemsbattle_interact
ASxxxx Linker V03.00 + NoICE + sdld,  page 74.
Hexadecimal  [32-Bits]

Area                                    Addr        Size        Decimal Bytes (Attributes)
--------------------------------        ----        ----        ------- ----- ------------
_CODE_13                            000D4000    00004000 =       16384. bytes (REL,CON)

      Value  Global                              Global Defined In Module
      -----  --------------------------------   ------------------------
     000D4000  _core_reset                        core
     000D4075  _process_VM                        core
     000D431C  _core_run                          core
     000D43FE  ___HandleCrash_banked              
     000D4765  _data_init                         load_save
     000D47B0  _save_points                       load_save
     000D4808  _data_slot_address                 load_save
     000D486C  _data_save                         load_save
     000D4952  _data_load                         load_save
     000D4A61  _data_clear                        load_save
     000D4A92  _data_peek                         load_save
     000D4B40  _trigger_reset                     trigger
     000D4B50  _trigger_interact                  trigger
     000D4B90  _trigger_activate_at               trigger
     000D4BDB  _trigger_at_intersection           trigger
     000D4CF0  _trigger_activate_at_intersectio   trigger
     000D4E32  _trigger_at_tile                   trigger
     000D4EC2  ___func_VM_SIO                     vm_sio
     000D4EC2  _vm_sio_set_mode                   vm_sio
     000D4ED5  _vm_sio_exchange                   vm_sio
     000D522E  _actor_angry_guy_interact          actor_angry_guy_interact
     000D559D  ___func_bg_outside_tileset         bg_outside_tileset
     000D559D  _bg_outside_tileset                bg_outside_tileset
     000D598F  ___func_bg_platform_path_tileset   bg_platform_path_tileset
     000D598F  _bg_platform_path_tileset          bg_platform_path_tileset
     000D5CD1  _scene_17_init                     scene_17_init
     000D5CE8  ___func_scene_20_collisions        scene_20_collisions
     000D5CE8  _scene_20_collisions               scene_20_collisions
     000D60E8  ___func_scene_21_actors            scene_21_actors
     000D60E8  _scene_21_actors                   scene_21_actors
     000D62F0  ___func_scene_22_collisions        scene_22_collisions
     000D62F0  _scene_22_collisions               scene_22_collisions
     000D66F0  ___func_scene_27_collisions        scene_27_collisions
     000D66F0  _scene_27_collisions               scene_27_collisions
     000D6AF0  ___func_scene_deep_space_collisi   scene_deep_space_collisions
     000D6AF0  _scene_deep_space_collisions       scene_deep_space_collisions
     000D6EF0  ___func_scene_space_battle_actor   scene_space_battle_actors
     000D6EF0  _scene_space_battle_actors         scene_space_battle_actors
     000D7230  ___func_scene_underground_collis   scene_underground_collisions
     000D7230  _scene_underground_collisions      scene_underground_collisions
     000D7630  ___func_sound_gbstudio_sfx_sav_0   sound_gbstudio_sfx_sav
     000D7630  ___func_sound_gbstudio_sfx_sav_0   sound_gbstudio_sfx_sav
     000D7630  ___func_sound_gbstudio_sfx_sav_0   sound_gbstudio_sfx_sav
     000D7630  ___func_sound_gbstudio_sfx_sav_0   sound_gbstudio_sfx_sav
     000D7630  ___func_sound_gbstudio_sfx_sav_0   sound_gbstudio_sfx_sav
     000D7630  ___func_sound_gbstudio_sfx_sav_0   sound_gbstudio_sfx_sav
     000D7630  ___func_sound_gbstudio_sfx_sav_0   sound_gbstudio_sfx_sav
     000D7630  ___func_sound_gbstudio_sfx_sav_0   sound_gbstudio_sfx_sav
     000D7630  ___func_sound_gbstudio_sfx_sav_0   sound_gbstudio_sfx_sav
     000D7630  ___func_sound_gbstudio_sfx_sav_0   sound_gbstudio_sfx_sav
ASxxxx Linker V03.00 + NoICE + sdld,  page 75.
Hexadecimal  [32-Bits]

Area                                    Addr        Size        Decimal Bytes (Attributes)
--------------------------------        ----        ----        ------- ----- ------------
_CODE_13                            000D4000    00004000 =       16384. bytes (REL,CON)

      Value  Global                              Global Defined In Module
      -----  --------------------------------   ------------------------
     000D7630  _sound_gbstudio_sfx_sav_00         sound_gbstudio_sfx_sav
     000D76B7  _sound_gbstudio_sfx_sav_01         sound_gbstudio_sfx_sav
     000D770E  _sound_gbstudio_sfx_sav_02         sound_gbstudio_sfx_sav
     000D7747  _sound_gbstudio_sfx_sav_03         sound_gbstudio_sfx_sav
     000D7778  _sound_gbstudio_sfx_sav_04         sound_gbstudio_sfx_sav
     000D77DC  _sound_gbstudio_sfx_sav_05         sound_gbstudio_sfx_sav
     000D784D  _sound_gbstudio_sfx_sav_06         sound_gbstudio_sfx_sav
     000D78AC  _sound_gbstudio_sfx_sav_07         sound_gbstudio_sfx_sav
     000D78E4  _sound_gbstudio_sfx_sav_08         sound_gbstudio_sfx_sav
     000D7939  _sound_gbstudio_sfx_sav_09         sound_gbstudio_sfx_sav
     000D799B  ___func_sprite_elephant_tileset    sprite_elephant_tileset
     000D799B  _sprite_elephant_tileset           sprite_elephant_tileset
     000D7C9D  _pointnclick_init                  pointnclick
     000D7CD6  _pointnclick_update                pointnclick

ASxxxx Linker V03.00 + NoICE + sdld,  page 76.
Hexadecimal  [32-Bits]

Area                                    Addr        Size        Decimal Bytes (Attributes)
--------------------------------        ----        ----        ------- ----- ------------
_CRASH_HEADER0                      00000000    00000005 =           5. bytes (ABS,CON)

      Value  Global                              Global Defined In Module
      -----  --------------------------------   ------------------------
ASxxxx Linker V03.00 + NoICE + sdld,  page 77.
Hexadecimal  [32-Bits]

Area                                    Addr        Size        Decimal Bytes (Attributes)
--------------------------------        ----        ----        ------- ----- ------------
_CRASH_HEADER1                      00000000    00000004 =           4. bytes (ABS,CON)

      Value  Global                              Global Defined In Module
      -----  --------------------------------   ------------------------
ASxxxx Linker V03.00 + NoICE + sdld,  page 78.
Hexadecimal  [32-Bits]

Area                                    Addr        Size        Decimal Bytes (Attributes)
--------------------------------        ----        ----        ------- ----- ------------
_CRASH_SCRATCH2                     00000000    000001CB =         459. bytes (ABS,CON)

      Value  Global                              Global Defined In Module
      -----  --------------------------------   ------------------------
ASxxxx Linker V03.00 + NoICE + sdld,  page 79.
Hexadecimal  [32-Bits]

Area                                    Addr        Size        Decimal Bytes (Attributes)
--------------------------------        ----        ----        ------- ----- ------------
_CODE_4                             00044000    00004000 =       16384. bytes (REL,CON)

      Value  Global                              Global Defined In Module
      -----  --------------------------------   ------------------------
     00044000  _load_init                         data_manager
     00044013  _spritesheet_none_far              data_manager
     00044016  _load_bkg_tileset                  data_manager
     000440EF  _load_background                   data_manager
     000441ED  _load_sprite                       data_manager
     000442EA  _load_bounds                       data_manager
     0004430A  _do_load_palette                   data_manager
     0004438A  _load_scene                        data_manager
     00044C64  _load_player                       data_manager
     00044CB0  _load_emote                        data_manager
     00044CC4  ___func_bg_sample_town_tilemap_a   bg_sample_town_tilemap_attr
     00044CC4  _bg_sample_town_tilemap_attr       bg_sample_town_tilemap_attr
     00045904  ___func_bg_town_tilemap_attr       bg_town_tilemap_attr
     00045904  _bg_town_tilemap_attr              bg_town_tilemap_attr
     00046584  ___func_bg_town_tilemap            bg_town_tilemap
     00046584  _bg_town_tilemap                   bg_town_tilemap
     00047204  ___func_scene_21_collisions        scene_21_collisions
     00047204  _scene_21_collisions               scene_21_collisions
     00047E84  _scene_21_init                     scene_21_init

ASxxxx Linker V03.00 + NoICE + sdld,  page 80.
Hexadecimal  [32-Bits]

Area                                    Addr        Size        Decimal Bytes (Attributes)
--------------------------------        ----        ----        ------- ----- ------------
_CODE_17                            00114000    00004000 =       16384. bytes (REL,CON)

      Value  Global                              Global Defined In Module
      -----  --------------------------------   ------------------------
     00114000  _events_init                       events
     00114040  _timers_init                       events
     00114080  _restore_sram_bank                 flasher
     001140BA  _restore_sram                      flasher
     001140D0  _save_sram                         flasher
     00114100  _palette_init                      palette
     00114139  _CGBZeroPalette                    palette
     0011414E  ___func_VM_LOAD_SAVE               vm_load_save
     0011414E  _vm_save_clear                     vm_load_save
     0011415D  _vm_save_peek                      vm_load_save
     001141DF  _actor_25_interact                 actor_25_interact
     00114228  _actor_26_interact                 actor_26_interact
     00114270  _actor_37_interact                 actor_37_interact
     001142BA  _actor_40_interact                 actor_40_interact
     00114338  _actor_42_interact                 actor_42_interact
     001143C0  _actor_43_interact                 actor_43_interact
     00114433  _actor_44_interact                 actor_44_interact
     001144D3  _actor_45_interact                 actor_45_interact
     00114539  _actor_51_interact                 actor_51_interact
     001145B7  _actor_55_interact                 actor_55_interact
     0011461D  _actor_57_interact                 actor_57_interact
     001146A7  _actor_60_interact                 actor_60_interact
     00114702  _actor_61_update                   actor_61_update
     00114793  _actor_62_interact                 actor_62_interact
     001147DD  _actor_63_interact                 actor_63_interact
     00114857  _actor_65_interact                 actor_65_interact
     001148DF  _actor_68_interact                 actor_68_interact
     0011496E  _actor_69_interact                 actor_69_interact
     001149FD  _actor_70_interact                 actor_70_interact
     00114A8C  _actor_71_interact                 actor_71_interact
     00114AF5  _actor_72_update                   actor_72_update
     00114B90  _actor_73_update                   actor_73_update
     00114C2B  _actor_76_interact                 actor_76_interact
     00114CA7  _actor_77_interact                 actor_77_interact
     00114D13  _actor_78_interact                 actor_78_interact
     00114D66  _actor_79_interact                 actor_79_interact
     00114DB5  _actor_82_interact                 actor_82_interact
     00114E2B  _actor_86_interact                 actor_86_interact
     00114EAE  _actor_91_interact                 actor_91_interact
     00114EFA  _actor_93_interact                 actor_93_interact
     00114F7C  _actor_cat_interact                actor_cat_interact
     00114FCD  _actor_chest_interact              actor_chest_interact
     0011503F  _actor_elephant_interact           actor_elephant_interact
     001150E1  _actor_oblivious_guy_interact      actor_oblivious_guy_interact
     0011513A  _actor_pet_owner_interact          actor_pet_owner_interact
     001151C7  _actor_rock_1_interact             actor_rock_1_interact
     00115256  _actor_rock_2_interact             actor_rock_2_interact
     001152E5  _actor_rock_3_interact             actor_rock_3_interact
     00115374  _actor_rock_interact               actor_rock_interact
     00115403  _actor_scientist_interact          actor_scientist_interact
ASxxxx Linker V03.00 + NoICE + sdld,  page 81.
Hexadecimal  [32-Bits]

Area                                    Addr        Size        Decimal Bytes (Attributes)
--------------------------------        ----        ----        ------- ----- ------------
_CODE_17                            00114000    00004000 =       16384. bytes (REL,CON)

      Value  Global                              Global Defined In Module
      -----  --------------------------------   ------------------------
     001154A5  _actor_scientist_update            actor_scientist_update
     00115547  _actor_sign_post_0_interact        actor_sign_post_0_interact
     001155D8  ___func_avatar_font_0              avatar_font_0
     0011561C  _avatar_font_0                     avatar_font_0
     00115624  ___func_bg_menu_tileset            bg_menu_tileset
     00115624  _bg_menu_tileset                   bg_menu_tileset
     001156B6  ___func_frame_image                frame_image
     001156B6  _frame_image                       frame_image
     00115746  ___func_scene_20_actors            scene_20_actors
     00115746  _scene_20_actors                   scene_20_actors
     001157AE  ___func_scene_23_actors            scene_23_actors
     001157AE  _scene_23_actors                   scene_23_actors
     0011584A  ___func_scene_25_actors            scene_25_actors
     0011584A  _scene_25_actors                   scene_25_actors
     001158B2  ___func_scene_27_actors            scene_27_actors
     001158B2  _scene_27_actors                   scene_27_actors
     0011594E  ___func_scene_29_actors            scene_29_actors
     0011594E  _scene_29_actors                   scene_29_actors
     001159B6  _scene_30_p_hit1                   scene_30_p_hit1
     00115A54  ___func_scene_deep_space_actors    scene_deep_space_actors
     00115A54  _scene_deep_space_actors           scene_deep_space_actors
     00115AF0  ___func_scene_deeper_underground   scene_deeper_underground_act
     00115AF0  _scene_deeper_underground_actors   scene_deeper_underground_act
     00115B8C  _scene_dream_init                  scene_dream_init
     00115C24  _scene_logo_init                   scene_logo_init
     00115C7C  _scene_menu_page_2_init            scene_menu_page_2_init
     00115D21  ___func_scene_menu_page_2_sprite   scene_menu_page_2_sprites
     00115D21  _scene_menu_page_2_sprites         scene_menu_page_2_sprites
     00115D24  ___func_scene_parallax_example_a   scene_parallax_example_actor
     00115D24  _scene_parallax_example_actors     scene_parallax_example_actor
     00115D8C  _scene_parallax_example_init       scene_parallax_example_init
     00115DEF  ___func_scene_player_s_house_tri   scene_player_s_house_trigger
     00115DEF  _scene_player_s_house_triggers     scene_player_s_house_trigger
     00115E47  ___func_scene_sample_town_trigge   scene_sample_town_triggers
     00115E47  _scene_sample_town_triggers        scene_sample_town_triggers
     00115EC7  _scene_space_battle_init           scene_space_battle_init
     00115F2C  _scene_space_battle_p_hit1         scene_space_battle_p_hit1
     00115F98  ___func_scene_top_house_actors     scene_top_house_actors
     00115F98  _scene_top_house_actors            scene_top_house_actors
     00116034  _scene_underground_init            scene_underground_init
     0011608F  _script_turnip_movement            script_turnip_movement
     0011612E  ___func_sprite_ant_tileset         sprite_ant_tileset
     0011612E  _sprite_ant_tileset                sprite_ant_tileset
     001161B0  ___func_sprite_baldguybymonkeyim   sprite_baldguybymonkeyimage
     001161B0  _sprite_baldguybymonkeyimage_met   sprite_baldguybymonkeyimage
     001161BC  _sprite_baldguybymonkeyimage_met   sprite_baldguybymonkeyimage
     001161C8  _sprite_baldguybymonkeyimage_met   sprite_baldguybymonkeyimage
     001161D4  _sprite_baldguybymonkeyimage_met   sprite_baldguybymonkeyimage
     001161E0  _sprite_baldguybymonkeyimage_met   sprite_baldguybymonkeyimage
     001161E4  _sprite_baldguybymonkeyimage_met   sprite_baldguybymonkeyimage
     001161EE  _sprite_baldguybymonkeyimage_ani   sprite_baldguybymonkeyimage
ASxxxx Linker V03.00 + NoICE + sdld,  page 82.
Hexadecimal  [32-Bits]

Area                                    Addr        Size        Decimal Bytes (Attributes)
--------------------------------        ----        ----        ------- ----- ------------
_CODE_17                            00114000    00004000 =       16384. bytes (REL,CON)

      Value  Global                              Global Defined In Module
      -----  --------------------------------   ------------------------
     001161FE  _sprite_baldguybymonkeyimage_ani   sprite_baldguybymonkeyimage
     00116200  _sprite_baldguybymonkeyimage       sprite_baldguybymonkeyimage
     00116213  ___func_sprite_bullet_left_tiles   sprite_bullet_left_tileset
     00116213  _sprite_bullet_left_tileset        sprite_bullet_left_tileset
     00116295  ___func_sprite_bullet_right_tile   sprite_bullet_right_tileset
     00116295  _sprite_bullet_right_tileset       sprite_bullet_right_tileset
     00116317  ___func_sprite_cat_tileset         sprite_cat_tileset
     00116317  _sprite_cat_tileset                sprite_cat_tileset
     00116399  ___func_sprite_chipmunk_tileset    sprite_chipmunk_tileset
     00116399  _sprite_chipmunk_tileset           sprite_chipmunk_tileset
     0011641B  ___func_sprite_cursor_tileset      sprite_cursor_tileset
     0011641B  _sprite_cursor_tileset             sprite_cursor_tileset
     0011649D  ___func_sprite_cursor              sprite_cursor
     0011649D  _sprite_cursor_metasprite_0        sprite_cursor
     001164A9  _sprite_cursor_metasprite_1        sprite_cursor
     001164B5  _sprite_cursor_metasprite_2        sprite_cursor
     001164C1  _sprite_cursor_metasprites         sprite_cursor
     001164C7  _sprite_cursor_animations          sprite_cursor
     001164D7  _sprite_cursor_animations_lookup   sprite_cursor
     001164D9  _sprite_cursor                     sprite_cursor
     001164EC  ___func_sprite_drumkit_tileset     sprite_drumkit_tileset
     001164EC  _sprite_drumkit_tileset            sprite_drumkit_tileset
     0011656E  ___func_sprite_duck_tileset        sprite_duck_tileset
     0011656E  _sprite_duck_tileset               sprite_duck_tileset
     001165F0  ___func_sprite_enemy_ship          sprite_enemy_ship
     001165F0  _sprite_enemy_ship_metasprite_0    sprite_enemy_ship
     001165FC  _sprite_enemy_ship_metasprite_1    sprite_enemy_ship
     00116608  _sprite_enemy_ship_metasprite_2    sprite_enemy_ship
     00116614  _sprite_enemy_ship_metasprite_3    sprite_enemy_ship
     00116620  _sprite_enemy_ship_metasprite_4    sprite_enemy_ship
     0011662C  _sprite_enemy_ship_metasprite_5    sprite_enemy_ship
     00116638  _sprite_enemy_ship_metasprites     sprite_enemy_ship
     00116644  _sprite_enemy_ship_animations      sprite_enemy_ship
     00116664  _sprite_enemy_ship_animations_lo   sprite_enemy_ship
     00116668  _sprite_enemy_ship                 sprite_enemy_ship
     0011667B  ___func_sprite_ferret_tileset      sprite_ferret_tileset
     0011667B  _sprite_ferret_tileset             sprite_ferret_tileset
     001166FD  ___func_sprite_fire                sprite_fire
     001166FD  _sprite_fire_metasprite_0          sprite_fire
     00116709  _sprite_fire_metasprite_1          sprite_fire
     00116715  _sprite_fire_metasprite_2          sprite_fire
     00116721  _sprite_fire_metasprite_3          sprite_fire
     0011672D  _sprite_fire_metasprites           sprite_fire
     00116735  _sprite_fire_animations            sprite_fire
     00116745  _sprite_fire_animations_lookup     sprite_fire
     00116747  _sprite_fire                       sprite_fire
     0011675A  ___func_sprite_frog_tileset        sprite_frog_tileset
     0011675A  _sprite_frog_tileset               sprite_frog_tileset
     001167DC  ___func_sprite_gerbil_tileset      sprite_gerbil_tileset
     001167DC  _sprite_gerbil_tileset             sprite_gerbil_tileset
     0011685E  ___func_sprite_hedgehog_tileset    sprite_hedgehog_tileset
ASxxxx Linker V03.00 + NoICE + sdld,  page 83.
Hexadecimal  [32-Bits]

Area                                    Addr        Size        Decimal Bytes (Attributes)
--------------------------------        ----        ----        ------- ----- ------------
_CODE_17                            00114000    00004000 =       16384. bytes (REL,CON)

      Value  Global                              Global Defined In Module
      -----  --------------------------------   ------------------------
     0011685E  _sprite_hedgehog_tileset           sprite_hedgehog_tileset
     001168E0  ___func_sprite_keyboard_tileset    sprite_keyboard_tileset
     001168E0  _sprite_keyboard_tileset           sprite_keyboard_tileset
     00116962  ___func_sprite_machine_tileset     sprite_machine_tileset
     00116962  _sprite_machine_tileset            sprite_machine_tileset
     001169E4  ___func_sprite_mantis_tileset      sprite_mantis_tileset
     001169E4  _sprite_mantis_tileset             sprite_mantis_tileset
     00116A66  ___func_sprite_mouse_tileset       sprite_mouse_tileset
     00116A66  _sprite_mouse_tileset              sprite_mouse_tileset
     00116AE8  ___func_sprite_npc_gardener_tile   sprite_npc_gardener_tileset
     00116AE8  _sprite_npc_gardener_tileset       sprite_npc_gardener_tileset
     00116B6A  ___func_sprite_npc_gardener        sprite_npc_gardener
     00116B6A  _sprite_npc_gardener_metasprite_   sprite_npc_gardener
     00116B7E  _sprite_npc_gardener_metasprite_   sprite_npc_gardener
     00116B92  _sprite_npc_gardener_metasprites   sprite_npc_gardener
     00116B96  _sprite_npc_gardener_animations    sprite_npc_gardener
     00116BA6  _sprite_npc_gardener_animations_   sprite_npc_gardener
     00116BA8  _sprite_npc_gardener               sprite_npc_gardener
     00116BBB  ___func_sprite_npc001              sprite_npc001
     00116BBB  _sprite_npc001_metasprite_0        sprite_npc001
     00116BC7  _sprite_npc001_metasprite_1        sprite_npc001
     00116BD3  _sprite_npc001_metasprite_2        sprite_npc001
     00116BDF  _sprite_npc001_metasprite_3        sprite_npc001
     00116BEB  _sprite_npc001_metasprites         sprite_npc001
     00116BF3  _sprite_npc001_animations          sprite_npc001
     00116C03  _sprite_npc001_animations_lookup   sprite_npc001
     00116C05  _sprite_npc001                     sprite_npc001
     00116C18  ___func_sprite_npc002              sprite_npc002
     00116C18  _sprite_npc002_metasprite_0        sprite_npc002
     00116C24  _sprite_npc002_metasprite_1        sprite_npc002
     00116C30  _sprite_npc002_metasprite_2        sprite_npc002
     00116C3C  _sprite_npc002_metasprite_3        sprite_npc002
     00116C48  _sprite_npc002_metasprites         sprite_npc002
     00116C50  _sprite_npc002_animations          sprite_npc002
     00116C60  _sprite_npc002_animations_lookup   sprite_npc002
     00116C62  _sprite_npc002                     sprite_npc002
     00116C75  ___func_sprite_npc003              sprite_npc003
     00116C75  _sprite_npc003_metasprite_0        sprite_npc003
     00116C81  _sprite_npc003_metasprite_1        sprite_npc003
     00116C8D  _sprite_npc003_metasprite_2        sprite_npc003
     00116C99  _sprite_npc003_metasprite_3        sprite_npc003
     00116CA5  _sprite_npc003_metasprite_4        sprite_npc003
     00116CB1  _sprite_npc003_metasprite_5        sprite_npc003
     00116CBD  _sprite_npc003_metasprite_6        sprite_npc003
     00116CC9  _sprite_npc003_metasprite_7        sprite_npc003
     00116CD5  _sprite_npc003_metasprites         sprite_npc003
     00116CED  _sprite_npc003_animations          sprite_npc003
     00116CFD  _sprite_npc003_animations_lookup   sprite_npc003
     00116CFF  _sprite_npc003                     sprite_npc003
     00116D12  ___func_sprite_npc004              sprite_npc004
     00116D12  _sprite_npc004_metasprite_0        sprite_npc004
ASxxxx Linker V03.00 + NoICE + sdld,  page 84.
Hexadecimal  [32-Bits]

Area                                    Addr        Size        Decimal Bytes (Attributes)
--------------------------------        ----        ----        ------- ----- ------------
_CODE_17                            00114000    00004000 =       16384. bytes (REL,CON)

      Value  Global                              Global Defined In Module
      -----  --------------------------------   ------------------------
     00116D1E  _sprite_npc004_metasprite_1        sprite_npc004
     00116D2A  _sprite_npc004_metasprite_2        sprite_npc004
     00116D36  _sprite_npc004_metasprite_3        sprite_npc004
     00116D42  _sprite_npc004_metasprite_4        sprite_npc004
     00116D4E  _sprite_npc004_metasprite_5        sprite_npc004
     00116D5A  _sprite_npc004_metasprite_6        sprite_npc004
     00116D66  _sprite_npc004_metasprite_7        sprite_npc004
     00116D72  _sprite_npc004_metasprites         sprite_npc004
     00116D8A  _sprite_npc004_animations          sprite_npc004
     00116D9A  _sprite_npc004_animations_lookup   sprite_npc004
     00116D9C  _sprite_npc004                     sprite_npc004
     00116DAF  ___func_sprite_npc005              sprite_npc005
     00116DAF  _sprite_npc005_metasprite_0        sprite_npc005
     00116DBB  _sprite_npc005_metasprite_1        sprite_npc005
     00116DC7  _sprite_npc005_metasprite_2        sprite_npc005
     00116DD3  _sprite_npc005_metasprite_3        sprite_npc005
     00116DDF  _sprite_npc005_metasprite_4        sprite_npc005
     00116DEB  _sprite_npc005_metasprite_5        sprite_npc005
     00116DF7  _sprite_npc005_metasprite_6        sprite_npc005
     00116E03  _sprite_npc005_metasprite_7        sprite_npc005
     00116E0F  _sprite_npc005_metasprites         sprite_npc005
     00116E27  _sprite_npc005_animations          sprite_npc005
     00116E37  _sprite_npc005_animations_lookup   sprite_npc005
     00116E39  _sprite_npc005                     sprite_npc005
     00116E4C  ___func_sprite_npc006              sprite_npc006
     00116E4C  _sprite_npc006_metasprite_0        sprite_npc006
     00116E58  _sprite_npc006_metasprite_1        sprite_npc006
     00116E64  _sprite_npc006_metasprite_2        sprite_npc006
     00116E70  _sprite_npc006_metasprite_3        sprite_npc006
     00116E7C  _sprite_npc006_metasprite_4        sprite_npc006
     00116E88  _sprite_npc006_metasprite_5        sprite_npc006
     00116E94  _sprite_npc006_metasprite_6        sprite_npc006
     00116EA0  _sprite_npc006_metasprite_7        sprite_npc006
     00116EAC  _sprite_npc006_metasprites         sprite_npc006
     00116EC4  _sprite_npc006_animations          sprite_npc006
     00116ED4  _sprite_npc006_animations_lookup   sprite_npc006
     00116ED6  _sprite_npc006                     sprite_npc006
     00116EE9  ___func_sprite_npc007              sprite_npc007
     00116EE9  _sprite_npc007_metasprite_0        sprite_npc007
     00116EF5  _sprite_npc007_metasprite_1        sprite_npc007
     00116F01  _sprite_npc007_metasprite_2        sprite_npc007
     00116F0D  _sprite_npc007_metasprite_3        sprite_npc007
     00116F19  _sprite_npc007_metasprites         sprite_npc007
     00116F21  _sprite_npc007_animations          sprite_npc007
     00116F31  _sprite_npc007_animations_lookup   sprite_npc007
     00116F33  _sprite_npc007                     sprite_npc007
     00116F46  ___func_sprite_npc008              sprite_npc008
     00116F46  _sprite_npc008_metasprite_0        sprite_npc008
     00116F52  _sprite_npc008_metasprite_1        sprite_npc008
     00116F5E  _sprite_npc008_metasprite_2        sprite_npc008
     00116F6A  _sprite_npc008_metasprite_3        sprite_npc008
ASxxxx Linker V03.00 + NoICE + sdld,  page 85.
Hexadecimal  [32-Bits]

Area                                    Addr        Size        Decimal Bytes (Attributes)
--------------------------------        ----        ----        ------- ----- ------------
_CODE_17                            00114000    00004000 =       16384. bytes (REL,CON)

      Value  Global                              Global Defined In Module
      -----  --------------------------------   ------------------------
     00116F76  _sprite_npc008_metasprite_4        sprite_npc008
     00116F82  _sprite_npc008_metasprite_5        sprite_npc008
     00116F8E  _sprite_npc008_metasprite_6        sprite_npc008
     00116F9A  _sprite_npc008_metasprite_7        sprite_npc008
     00116FA6  _sprite_npc008_metasprites         sprite_npc008
     00116FBE  _sprite_npc008_animations          sprite_npc008
     00116FCE  _sprite_npc008_animations_lookup   sprite_npc008
     00116FD0  _sprite_npc008                     sprite_npc008
     00116FE3  ___func_sprite_pc_car              sprite_pc_car
     00116FE3  _sprite_pc_car_metasprite_0        sprite_pc_car
     00116FEF  _sprite_pc_car_metasprite_1        sprite_pc_car
     00116FFB  _sprite_pc_car_metasprite_2        sprite_pc_car
     00117007  _sprite_pc_car_metasprite_3        sprite_pc_car
     00117013  _sprite_pc_car_metasprite_4        sprite_pc_car
     0011701F  _sprite_pc_car_metasprite_5        sprite_pc_car
     0011702B  _sprite_pc_car_metasprite_6        sprite_pc_car
     00117037  _sprite_pc_car_metasprite_7        sprite_pc_car
     00117043  _sprite_pc_car_metasprites         sprite_pc_car
     0011705B  _sprite_pc_car_animations          sprite_pc_car
     0011706B  _sprite_pc_car_animations_lookup   sprite_pc_car
     0011706D  _sprite_pc_car                     sprite_pc_car
     00117080  ___func_sprite_player_ship         sprite_player_ship
     00117080  _sprite_player_ship_metasprite_0   sprite_player_ship
     0011708C  _sprite_player_ship_metasprite_1   sprite_player_ship
     00117098  _sprite_player_ship_metasprite_2   sprite_player_ship
     001170A4  _sprite_player_ship_metasprite_3   sprite_player_ship
     001170B0  _sprite_player_ship_metasprite_4   sprite_player_ship
     001170BC  _sprite_player_ship_metasprite_5   sprite_player_ship
     001170C8  _sprite_player_ship_metasprite_6   sprite_player_ship
     001170D4  _sprite_player_ship_metasprite_7   sprite_player_ship
     001170E0  _sprite_player_ship_metasprites    sprite_player_ship
     001170F8  _sprite_player_ship_animations     sprite_player_ship
     00117108  _sprite_player_ship_animations_l   sprite_player_ship
     0011710A  _sprite_player_ship                sprite_player_ship
     0011711D  ___func_sprite_player              sprite_player
     0011711D  _sprite_player_metasprite_0        sprite_player
     00117129  _sprite_player_metasprite_1        sprite_player
     00117135  _sprite_player_metasprite_2        sprite_player
     00117141  _sprite_player_metasprite_3        sprite_player
     0011714D  _sprite_player_metasprite_4        sprite_player
     00117159  _sprite_player_metasprite_5        sprite_player
     00117165  _sprite_player_metasprite_6        sprite_player
     00117171  _sprite_player_metasprite_7        sprite_player
     0011717D  _sprite_player_metasprites         sprite_player
     00117195  _sprite_player_animations          sprite_player
     001171A5  _sprite_player_animations_lookup   sprite_player
     001171A7  _sprite_player                     sprite_player
     001171BA  ___func_sprite_pod_door_tileset    sprite_pod_door_tileset
     001171BA  _sprite_pod_door_tileset           sprite_pod_door_tileset
     0011721C  ___func_sprite_pod_door            sprite_pod_door
     0011721C  _sprite_pod_door_metasprite_0      sprite_pod_door
ASxxxx Linker V03.00 + NoICE + sdld,  page 86.
Hexadecimal  [32-Bits]

Area                                    Addr        Size        Decimal Bytes (Attributes)
--------------------------------        ----        ----        ------- ----- ------------
_CODE_17                            00114000    00004000 =       16384. bytes (REL,CON)

      Value  Global                              Global Defined In Module
      -----  --------------------------------   ------------------------
     00117228  _sprite_pod_door_metasprite_1      sprite_pod_door
     00117234  _sprite_pod_door_metasprite_2      sprite_pod_door
     00117240  _sprite_pod_door_metasprites       sprite_pod_door
     00117246  _sprite_pod_door_animations        sprite_pod_door
     00117256  _sprite_pod_door_animations_look   sprite_pod_door
     00117258  _sprite_pod_door                   sprite_pod_door
     0011726B  ___func_sprite_portal              sprite_portal
     0011726B  _sprite_portal_metasprite_0        sprite_portal
     00117277  _sprite_portal_metasprite_1        sprite_portal
     00117283  _sprite_portal_metasprite_2        sprite_portal
     0011728F  _sprite_portal_metasprites         sprite_portal
     00117295  _sprite_portal_animations          sprite_portal
     001172A5  _sprite_portal_animations_lookup   sprite_portal
     001172A7  _sprite_portal                     sprite_portal
     001172BA  ___func_sprite_robot               sprite_robot
     001172BA  _sprite_robot_metasprite_0         sprite_robot
     001172C6  _sprite_robot_metasprite_1         sprite_robot
     001172D2  _sprite_robot_metasprite_2         sprite_robot
     001172DE  _sprite_robot_metasprite_3         sprite_robot
     001172EA  _sprite_robot_metasprite_4         sprite_robot
     001172F6  _sprite_robot_metasprite_5         sprite_robot
     00117302  _sprite_robot_metasprite_6         sprite_robot
     0011730E  _sprite_robot_metasprite_7         sprite_robot
     0011731A  _sprite_robot_metasprites          sprite_robot
     00117332  _sprite_robot_animations           sprite_robot
     00117342  _sprite_robot_animations_lookup    sprite_robot
     00117344  _sprite_robot                      sprite_robot
     00117357  ___func_sprite_space_mine          sprite_space_mine
     00117357  _sprite_space_mine_metasprite_0    sprite_space_mine
     00117363  _sprite_space_mine_metasprite_1    sprite_space_mine
     0011736F  _sprite_space_mine_metasprite_2    sprite_space_mine
     0011737B  _sprite_space_mine_metasprite_3    sprite_space_mine
     00117387  _sprite_space_mine_metasprite_4    sprite_space_mine
     00117393  _sprite_space_mine_metasprite_5    sprite_space_mine
     0011739F  _sprite_space_mine_metasprites     sprite_space_mine
     001173AB  _sprite_space_mine_animations      sprite_space_mine
     001173CB  _sprite_space_mine_animations_lo   sprite_space_mine
     001173CF  _sprite_space_mine                 sprite_space_mine
     001173E2  ___func_sprite_squirrel_tileset    sprite_squirrel_tileset
     001173E2  _sprite_squirrel_tileset           sprite_squirrel_tileset
     00117464  ___func_sprite_turnip              sprite_turnip
     00117464  _sprite_turnip_metasprite_0        sprite_turnip
     00117478  _sprite_turnip_metasprite_1        sprite_turnip
     0011748C  _sprite_turnip_metasprite_2        sprite_turnip
     00117498  _sprite_turnip_metasprites         sprite_turnip
     0011749E  _sprite_turnip_animations          sprite_turnip
     001174BE  _sprite_turnip_animations_lookup   sprite_turnip
     001174C2  _sprite_turnip                     sprite_turnip
     001174D5  ___func_sprite_type2_tileset       sprite_type2_tileset
     001174D5  _sprite_type2_tileset              sprite_type2_tileset
     00117577  ___func_sprite_type2               sprite_type2
ASxxxx Linker V03.00 + NoICE + sdld,  page 87.
Hexadecimal  [32-Bits]

Area                                    Addr        Size        Decimal Bytes (Attributes)
--------------------------------        ----        ----        ------- ----- ------------
_CODE_17                            00114000    00004000 =       16384. bytes (REL,CON)

      Value  Global                              Global Defined In Module
      -----  --------------------------------   ------------------------
     00117577  _sprite_type2_metasprite_0         sprite_type2
     0011758B  _sprite_type2_metasprite_1         sprite_type2
     001175A3  _sprite_type2_metasprites          sprite_type2
     001175A7  _sprite_type2_animations           sprite_type2
     001175B7  _sprite_type2_animations_lookup    sprite_type2
     001175B9  _sprite_type2                      sprite_type2
     001175CC  ___func_sprite_type4_tileset       sprite_type4_tileset
     001175CC  _sprite_type4_tileset              sprite_type4_tileset
     0011766E  ___func_sprite_type4               sprite_type4
     0011766E  _sprite_type4_metasprite_0         sprite_type4
     00117682  _sprite_type4_metasprite_1         sprite_type4
     00117696  _sprite_type4_metasprites          sprite_type4
     0011769A  _sprite_type4_animations           sprite_type4
     001176AA  _sprite_type4_animations_lookup    sprite_type4
     001176AC  _sprite_type4                      sprite_type4
     001176BF  ___func_sprite_type5_tileset       sprite_type5_tileset
     001176BF  _sprite_type5_tileset              sprite_type5_tileset
     00117761  ___func_sprite_type5               sprite_type5
     00117761  _sprite_type5_metasprite_0         sprite_type5
     00117779  _sprite_type5_metasprite_1         sprite_type5
     00117791  _sprite_type5_metasprites          sprite_type5
     00117795  _sprite_type5_animations           sprite_type5
     001177A5  _sprite_type5_animations_lookup    sprite_type5
     001177A7  _sprite_type5                      sprite_type5
     001177BA  ___func_sprite_type6_tileset       sprite_type6_tileset
     001177BA  _sprite_type6_tileset              sprite_type6_tileset
     0011785C  ___func_sprite_type6               sprite_type6
     0011785C  _sprite_type6_metasprite_0         sprite_type6
     00117874  _sprite_type6_metasprite_1         sprite_type6
     0011788C  _sprite_type6_metasprites          sprite_type6
     00117890  _sprite_type6_animations           sprite_type6
     001178A0  _sprite_type6_animations_lookup    sprite_type6
     001178A2  _sprite_type6                      sprite_type6
     001178B5  ___func_sprite_types_tileset       sprite_types_tileset
     001178B5  _sprite_types_tileset              sprite_types_tileset
     00117957  ___func_sprite_typewater_tileset   sprite_typewater_tileset
     00117957  _sprite_typewater_tileset          sprite_typewater_tileset
     001179D9  ___func_sprite_typewater           sprite_typewater
     001179D9  _sprite_typewater_metasprite_0     sprite_typewater
     001179ED  _sprite_typewater_metasprite_1     sprite_typewater
     00117A01  _sprite_typewater_metasprites      sprite_typewater
     00117A05  _sprite_typewater_animations       sprite_typewater
     00117A15  _sprite_typewater_animations_loo   sprite_typewater
     00117A17  _sprite_typewater                  sprite_typewater
     00117A2A  ___func_sprite_typewood_tileset    sprite_typewood_tileset
     00117A2A  _sprite_typewood_tileset           sprite_typewood_tileset
     00117ACC  ___func_sprite_ungulate            sprite_ungulate
     00117ACC  _sprite_ungulate_metasprite_0      sprite_ungulate
     00117AEC  _sprite_ungulate_metasprite_1      sprite_ungulate
     00117B0C  _sprite_ungulate_metasprites       sprite_ungulate
     00117B10  _sprite_ungulate_animations        sprite_ungulate
ASxxxx Linker V03.00 + NoICE + sdld,  page 88.
Hexadecimal  [32-Bits]

Area                                    Addr        Size        Decimal Bytes (Attributes)
--------------------------------        ----        ----        ------- ----- ------------
_CODE_17                            00114000    00004000 =       16384. bytes (REL,CON)

      Value  Global                              Global Defined In Module
      -----  --------------------------------   ------------------------
     00117B20  _sprite_ungulate_animations_look   sprite_ungulate
     00117B22  _sprite_ungulate                   sprite_ungulate
     00117B35  ___func_sprite_williemouse         sprite_williemouse
     00117B35  _sprite_williemouse_metasprite_0   sprite_williemouse
     00117B59  _sprite_williemouse_metasprite_1   sprite_williemouse
     00117B7D  _sprite_williemouse_metasprites    sprite_williemouse
     00117B81  _sprite_williemouse_animations     sprite_williemouse
     00117B91  _sprite_williemouse_animations_l   sprite_williemouse
     00117B93  _sprite_williemouse                sprite_williemouse
     00117BA6  _trigger_10_interact               trigger_10_interact
     00117C34  _trigger_11_interact               trigger_11_interact
     00117CC2  _trigger_20_interact               trigger_20_interact
     00117D1E  _trigger_21_interact               trigger_21_interact
     00117D79  _trigger_22_interact               trigger_22_interact
     00117DF2  _trigger_31_interact               trigger_31_interact
     00117E58  _trigger_34_interact               trigger_34_interact
     00117EAC  _trigger_40_interact               trigger_40_interact
     00117F2D  _trigger_7_interact                trigger_7_interact
     00117F89  _trigger_9_interact                trigger_9_interact
ASxxxx Linker V03.00 + NoICE + sdld,  page 89.
Hexadecimal  [32-Bits]

Area                                    Addr        Size        Decimal Bytes (Attributes)
--------------------------------        ----        ----        ------- ----- ------------
_CODE_14                            000E4000    00003FFE =       16382. bytes (REL,CON)

      Value  Global                              Global Defined In Module
      -----  --------------------------------   ------------------------
     000E4000  _CGBFadeToWhiteStep                fade_manager
     000E4039  _CGBFadeToBlackStep                fade_manager
     000E4074  _ApplyPaletteChangeColor           fade_manager
     000E40B8  _fade_speeds                       fade_manager
     000E40BF  _DMGFadeToWhiteStep                fade_manager
     000E40E2  _DMGFadeToBlackStep                fade_manager
     000E4107  _ApplyPaletteChangeDMG             fade_manager
     000E417E  _fade_init                         fade_manager
     000E41A6  _fade_in                           fade_manager
     000E41D7  _fade_out                          fade_manager
     000E4209  _fade_update                       fade_manager
     000E4263  _fade_applypalettechange           fade_manager
     000E427D  _fade_setspeed                     fade_manager
     000E428D  _fade_in_modal                     fade_manager
     000E42A7  _fade_out_modal                    fade_manager
     000E42C1  _set_sgb_border                    sgb_border
     000E44F2  ___func_VM_CAMERA                  vm_camera
     000E44F2  _vm_camera_move_to                 vm_camera
     000E4645  _vm_camera_set_pos                 vm_camera
     000E468C  _camera_shake_frames               vm_camera
     000E4784  ___func_VM_PALETTE                 vm_palette
     000E4784  _vm_load_palette                   vm_palette
     000E4938  _actor_31_update                   actor_31_update
     000E4AC8  _actor_50_interact                 actor_50_interact
     000E4B27  _actor_57_update                   actor_57_update
     000E4CB7  _actor_64_update                   actor_64_update
     000E4E47  _actor_76_update                   actor_76_update
     000E4FD7  _actor_gardener_interact           actor_gardener_interact
     000E5185  _actor_space_dog_interact          actor_space_dog_interact
     000E5380  ___func_bg_hidden_cave_tilemap_a   bg_hidden_cave_tilemap_attr
     000E5380  _bg_hidden_cave_tilemap_attr       bg_hidden_cave_tilemap_attr
     000E55C0  ___func_bg_hidden_cave_tilemap     bg_hidden_cave_tilemap
     000E55C0  _bg_hidden_cave_tilemap            bg_hidden_cave_tilemap
     000E5800  ___func_bg_menu_page2_tileset      bg_menu_page2_tileset
     000E5800  _bg_menu_page2_tileset             bg_menu_page2_tileset
     000E59D2  ___func_bg_underground_tileset     bg_underground_tileset
     000E59D2  _bg_underground_tileset            bg_underground_tileset
     000E5C24  ___func_scene_17_actors            scene_17_actors
     000E5C24  _scene_17_actors                   scene_17_actors
     000E5DF8  ___func_scene_24_collisions        scene_24_collisions
     000E5DF8  _scene_24_collisions               scene_24_collisions
     000E5FB0  ___func_scene_28_actors            scene_28_actors
     000E5FB0  _scene_28_actors                   scene_28_actors
     000E61B8  ___func_scene_deeper_underground   scene_deeper_underground_col
     000E61B8  _scene_deeper_underground_collis   scene_deeper_underground_col
     000E63F8  ___func_scene_menu_3_actors        scene_menu_3_actors
     000E63F8  _scene_menu_3_actors               scene_menu_3_actors
     000E6600  ___func_scene_sample_town_actors   scene_sample_town_actors
     000E6600  _scene_sample_town_actors          scene_sample_town_actors
     000E67D4  _script_15                         script_15
ASxxxx Linker V03.00 + NoICE + sdld,  page 90.
Hexadecimal  [32-Bits]

Area                                    Addr        Size        Decimal Bytes (Attributes)
--------------------------------        ----        ----        ------- ----- ------------
_CODE_14                            000E4000    00003FFE =       16382. bytes (REL,CON)

      Value  Global                              Global Defined In Module
      -----  --------------------------------   ------------------------
     000E6AC2  ___func_sprite_blackplayer_tiles   sprite_blackplayer_tileset
     000E6AC2  _sprite_blackplayer_tileset        sprite_blackplayer_tileset
     000E6CA4  ___func_sprite_elephant            sprite_elephant
     000E6CA4  _sprite_elephant_metasprite_0      sprite_elephant
     000E6CF0  _sprite_elephant_metasprite_1      sprite_elephant
     000E6D3C  _sprite_elephant_metasprite_2      sprite_elephant
     000E6D88  _sprite_elephant_metasprite_3      sprite_elephant
     000E6DD4  _sprite_elephant_metasprite_4      sprite_elephant
     000E6E20  _sprite_elephant_metasprite_5      sprite_elephant
     000E6E6C  _sprite_elephant_metasprite_6      sprite_elephant
     000E6EB8  _sprite_elephant_metasprites       sprite_elephant
     000E6EC6  _sprite_elephant_animations        sprite_elephant
     000E6ED6  _sprite_elephant_animations_look   sprite_elephant
     000E6ED8  _sprite_elephant                   sprite_elephant
     000E6EEB  ___func_sprite_guybymonkeyimage_   sprite_guybymonkeyimage_tile
     000E6EEB  _sprite_guybymonkeyimage_tileset   sprite_guybymonkeyimage_tile
     000E712D  ___func_sprite_inside_seven_elev   sprite_inside_seven_eleven_t
     000E712D  _sprite_inside_seven_eleven_tile   sprite_inside_seven_eleven_t
     000E72E5  ___func_sprite_inside_seven_elev   sprite_inside_seven_eleven_t
     000E72E5  _sprite_inside_seven_eleven_tile   sprite_inside_seven_eleven_t
     000E749D  ___func_sprite_knight_animated_t   sprite_knight_animated_tiles
     000E749D  _sprite_knight_animated_tileset    sprite_knight_animated_tiles
     000E761F  ___func_sprite_npc003_tileset      sprite_npc003_tileset
     000E761F  _sprite_npc003_tileset             sprite_npc003_tileset
     000E77A1  ___func_sprite_player_platform_t   sprite_player_platform_tiles
     000E77A1  _sprite_player_platform_tileset    sprite_player_platform_tiles
     000E79C3  ___func_sprite_player_platform     sprite_player_platform
     000E79C3  _sprite_player_platform_metaspri   sprite_player_platform
     000E79D7  _sprite_player_platform_metaspri   sprite_player_platform
     000E79EB  _sprite_player_platform_metaspri   sprite_player_platform
     000E79FF  _sprite_player_platform_metaspri   sprite_player_platform
     000E7A13  _sprite_player_platform_metaspri   sprite_player_platform
     000E7A27  _sprite_player_platform_metaspri   sprite_player_platform
     000E7A3B  _sprite_player_platform_metaspri   sprite_player_platform
     000E7A4F  _sprite_player_platform_metaspri   sprite_player_platform
     000E7A63  _sprite_player_platform_metaspri   sprite_player_platform
     000E7A67  _sprite_player_platform_metaspri   sprite_player_platform
     000E7A7B  _sprite_player_platform_metaspri   sprite_player_platform
     000E7A8F  _sprite_player_platform_metaspri   sprite_player_platform
     000E7AA3  _sprite_player_platform_metaspri   sprite_player_platform
     000E7AB7  _sprite_player_platform_metaspri   sprite_player_platform
     000E7ACB  _sprite_player_platform_metaspri   sprite_player_platform
     000E7ADF  _sprite_player_platform_metaspri   sprite_player_platform
     000E7AF3  _sprite_player_platform_metaspri   sprite_player_platform
     000E7B07  _sprite_player_platform_metaspri   sprite_player_platform
     000E7B35  _sprite_player_platform_animatio   sprite_player_platform
     000E7B45  _sprite_player_platform_animatio   sprite_player_platform
     000E7B47  _sprite_player_platform            sprite_player_platform
     000E7B5A  ___func_sprite_woman_platform_ti   sprite_woman_platform_tilese
     000E7B5A  _sprite_woman_platform_tileset     sprite_woman_platform_tilese
     000E7E1C  _trigger_69_interact               trigger_69_interact

ASxxxx Linker V03.00 + NoICE + sdld,  page 91.
Hexadecimal  [32-Bits]

Area                                    Addr        Size        Decimal Bytes (Attributes)
--------------------------------        ----        ----        ------- ----- ------------
_CODE_16                            00104000    00004000 =       16384. bytes (REL,CON)

      Value  Global                              Global Defined In Module
      -----  --------------------------------   ------------------------
     00104068  _save_sram_banks                   
     001040F0  _erase_flash                       
     00104106  _music_init_driver                 music_manager
     0010415D  _music_init_events                 music_manager
     00104199  _music_events_poll                 music_manager
     001041C3  _music_pause                       music_manager
     001041E8  ___func_VM_GBPRINTER               vm_gbprinter
     001041E8  _vm_print_detect                   vm_gbprinter
     0010423A  _vm_print_overlay                  vm_gbprinter
     00104292  ___func_VM_PROJECTILE              vm_projectiles
     00104292  _vm_projectile_launch              vm_projectiles
     001042D3  _vm_projectile_load_type           vm_projectiles
     0010437E  ___func_VM_RTC                     vm_rtc
     0010437E  _vm_rtc_latch                      vm_rtc
     00104386  _vm_rtc_get                        vm_rtc
     001043EF  _vm_rtc_set                        vm_rtc
     00104457  _vm_rtc_start                      vm_rtc
     0010447A  ___func_VM_SCENE                   vm_scene
     0010447A  _vm_scene_push                     vm_scene
     001044FF  _vm_scene_pop                      vm_scene
     0010450D  _vm_scene_pop_all                  vm_scene
     00104518  _vm_scene_stack_reset              vm_scene
     00104521  _itoa_fmt                          vm_ui_a
     0010455A  .utoa_fmt                          vm_ui_a
     00104604  _actor_20_interact                 actor_20_interact
     00104731  _actor_33_interact                 actor_33_interact
     00104816  _actor_39_update                   actor_39_update
     00104926  _actor_41_interact                 actor_41_interact
     001049CE  _actor_46_interact                 actor_46_interact
     00104A74  _actor_53_update                   actor_53_update
     00104B84  _actor_54_update                   actor_54_update
     00104C94  _actor_58_interact                 actor_58_interact
     00104D3C  _actor_59_interact                 actor_59_interact
     00104DEB  _actor_72_interact                 actor_72_interact
     00104ED6  _actor_73_interact                 actor_73_interact
     00104FC1  _actor_81_interact                 actor_81_interact
     0010506C  _actor_82_update                   actor_82_update
     0010517C  _actor_83_update                   actor_83_update
     0010528C  _actor_hider_interact              actor_hider_interact
     0010535D  _actor_ice_block_interact          actor_ice_block_interact
     00105475  _actor_pet_owner_update            actor_pet_owner_update
     00105591  _actor_radio_guy_interact          actor_radio_guy_interact
     00105687  _actor_sage_interact               actor_sage_interact
     00105739  _actor_save_point_0_interact       actor_save_point_0_interact
     00105817  _actor_save_point_1_interact       actor_save_point_1_interact
     001058F5  _actor_save_point_interact         actor_save_point_interact
     001059DB  _actor_sign_post_2_interact        actor_sign_post_2_interact
     00105A9E  ___func_bg_house_tileset           bg_house_tileset
     00105A9E  _bg_house_tileset                  bg_house_tileset
     00105B90  ___func_scene_22_actors            scene_22_actors
ASxxxx Linker V03.00 + NoICE + sdld,  page 92.
Hexadecimal  [32-Bits]

Area                                    Addr        Size        Decimal Bytes (Attributes)
--------------------------------        ----        ----        ------- ----- ------------
_CODE_16                            00104000    00004000 =       16384. bytes (REL,CON)

      Value  Global                              Global Defined In Module
      -----  --------------------------------   ------------------------
     00105B90  _scene_22_actors                   scene_22_actors
     00105C94  _scene_23_init                     scene_23_init
     00105D7B  ___func_scene_26_actors            scene_26_actors
     00105D7B  _scene_26_actors                   scene_26_actors
     00105EB3  _scene_28_init                     scene_28_init
     00105F90  ___func_scene_30_actors            scene_30_actors
     00105F90  _scene_30_actors                   scene_30_actors
     00106060  ___func_scene_battle_actors        scene_battle_actors
     00106060  _scene_battle_actors               scene_battle_actors
     00106198  ___func_scene_launch_site_actors   scene_launch_site_actors
     00106198  _scene_launch_site_actors          scene_launch_site_actors
     001062D0  _scene_menu_page_1_init            scene_menu_page_1_init
     001063C6  ___func_scene_menu_page_2_actors   scene_menu_page_2_actors
     001063C6  _scene_menu_page_2_actors          scene_menu_page_2_actors
     001064CA  ___func_scene_path_to_sample_tow   scene_path_to_sample_town_ac
     001064CA  _scene_path_to_sample_town_actor   scene_path_to_sample_town_ac
     00106602  _scene_path_to_sample_town_init    scene_path_to_sample_town_in
     001066E9  _scene_title_screen_init           scene_title_screen_init
     001067E6  ___func_scene_underground_actors   scene_underground_actors
     001067E6  _scene_underground_actors          scene_underground_actors
     0010691E  _script_16                         script_16
     00106A14  _script_enemy_ship_movement__0     script_enemy_ship_movement__
     00106B09  _script_enemy_ship_movement__1     script_enemy_ship_movement__
     00106BFE  _script_enemy_ship_movement__2     script_enemy_ship_movement__
     00106CF3  _script_enemy_ship_movement_       script_enemy_ship_movement_
     00106DE8  _script_turnip_collisions          script_turnip_collisions
     00106EA7  ___func_sprite_baldguybymonkeyim   sprite_baldguybymonkeyimage_
     00106EA7  _sprite_baldguybymonkeyimage_til   sprite_baldguybymonkeyimage_
     00106F69  ___func_sprite_blackplayer         sprite_blackplayer
     00106F69  _sprite_blackplayer_metasprite_0   sprite_blackplayer
     00106F75  _sprite_blackplayer_metasprite_1   sprite_blackplayer
     00106F81  _sprite_blackplayer_metasprite_2   sprite_blackplayer
     00106F8D  _sprite_blackplayer_metasprite_3   sprite_blackplayer
     00106F99  _sprite_blackplayer_metasprite_4   sprite_blackplayer
     00106FA5  _sprite_blackplayer_metasprite_5   sprite_blackplayer
     00106FB1  _sprite_blackplayer_metasprite_6   sprite_blackplayer
     00106FBD  _sprite_blackplayer_metasprite_7   sprite_blackplayer
     00106FC9  _sprite_blackplayer_metasprite_8   sprite_blackplayer
     00106FD5  _sprite_blackplayer_metasprite_9   sprite_blackplayer
     00106FE1  _sprite_blackplayer_metasprite_1   sprite_blackplayer
     00106FED  _sprite_blackplayer_metasprite_1   sprite_blackplayer
     00106FF9  _sprite_blackplayer_metasprite_1   sprite_blackplayer
     00107005  _sprite_blackplayer_metasprites    sprite_blackplayer
     00107023  _sprite_blackplayer_animations     sprite_blackplayer
     00107033  _sprite_blackplayer_animations_l   sprite_blackplayer
     00107035  _sprite_blackplayer                sprite_blackplayer
     00107048  ___func_sprite_chest               sprite_chest
     00107048  _sprite_chest_metasprite_0         sprite_chest
     00107054  _sprite_chest_metasprite_1         sprite_chest
     00107060  _sprite_chest_metasprites          sprite_chest
     00107064  _sprite_chest_animations           sprite_chest
ASxxxx Linker V03.00 + NoICE + sdld,  page 93.
Hexadecimal  [32-Bits]

Area                                    Addr        Size        Decimal Bytes (Attributes)
--------------------------------        ----        ----        ------- ----- ------------
_CODE_16                            00104000    00004000 =       16384. bytes (REL,CON)

      Value  Global                              Global Defined In Module
      -----  --------------------------------   ------------------------
     00107084  _sprite_chest_animations_lookup    sprite_chest
     0010708A  _sprite_chest                      sprite_chest
     0010709D  ___func_sprite_fire_tileset        sprite_fire_tileset
     0010709D  _sprite_fire_tileset               sprite_fire_tileset
     0010719F  ___func_sprite_guybymonkeyimage    sprite_guybymonkeyimage
     0010719F  _sprite_guybymonkeyimage_metaspr   sprite_guybymonkeyimage
     001071AB  _sprite_guybymonkeyimage_metaspr   sprite_guybymonkeyimage
     001071B7  _sprite_guybymonkeyimage_metaspr   sprite_guybymonkeyimage
     001071C3  _sprite_guybymonkeyimage_metaspr   sprite_guybymonkeyimage
     001071CF  _sprite_guybymonkeyimage_metaspr   sprite_guybymonkeyimage
     001071DB  _sprite_guybymonkeyimage_metaspr   sprite_guybymonkeyimage
     001071E7  _sprite_guybymonkeyimage_metaspr   sprite_guybymonkeyimage
     001071F3  _sprite_guybymonkeyimage_metaspr   sprite_guybymonkeyimage
     001071FF  _sprite_guybymonkeyimage_metaspr   sprite_guybymonkeyimage
     0010720B  _sprite_guybymonkeyimage_metaspr   sprite_guybymonkeyimage
     00107217  _sprite_guybymonkeyimage_metaspr   sprite_guybymonkeyimage
     00107223  _sprite_guybymonkeyimage_metaspr   sprite_guybymonkeyimage
     0010722F  _sprite_guybymonkeyimage_metaspr   sprite_guybymonkeyimage
     00107247  _sprite_guybymonkeyimage_animati   sprite_guybymonkeyimage
     00107257  _sprite_guybymonkeyimage_animati   sprite_guybymonkeyimage
     00107259  _sprite_guybymonkeyimage           sprite_guybymonkeyimage
     0010726C  ___func_sprite_knight_animated     sprite_knight_animated
     0010726C  _sprite_knight_animated_metaspri   sprite_knight_animated
     00107278  _sprite_knight_animated_metaspri   sprite_knight_animated
     00107284  _sprite_knight_animated_metaspri   sprite_knight_animated
     00107290  _sprite_knight_animated_metaspri   sprite_knight_animated
     0010729C  _sprite_knight_animated_metaspri   sprite_knight_animated
     001072A8  _sprite_knight_animated_metaspri   sprite_knight_animated
     001072B4  _sprite_knight_animated_metaspri   sprite_knight_animated
     001072C0  _sprite_knight_animated_metaspri   sprite_knight_animated
     001072CC  _sprite_knight_animated_metaspri   sprite_knight_animated
     001072D8  _sprite_knight_animated_metaspri   sprite_knight_animated
     001072F6  _sprite_knight_animated_animatio   sprite_knight_animated
     00107306  _sprite_knight_animated_animatio   sprite_knight_animated
     00107308  _sprite_knight_animated            sprite_knight_animated
     0010731B  ___func_sprite_npc001_tileset      sprite_npc001_tileset
     0010731B  _sprite_npc001_tileset             sprite_npc001_tileset
     001073DD  ___func_sprite_npc002_tileset      sprite_npc002_tileset
     001073DD  _sprite_npc002_tileset             sprite_npc002_tileset
     0010749F  ___func_sprite_npc007_tileset      sprite_npc007_tileset
     0010749F  _sprite_npc007_tileset             sprite_npc007_tileset
     00107561  ___func_sprite_npc008_tileset      sprite_npc008_tileset
     00107561  _sprite_npc008_tileset             sprite_npc008_tileset
     00107663  ___func_sprite_pc_car_tileset      sprite_pc_car_tileset
     00107663  _sprite_pc_car_tileset             sprite_pc_car_tileset
     00107765  ___func_sprite_player_ship_tiles   sprite_player_ship_tileset
     00107765  _sprite_player_ship_tileset        sprite_player_ship_tileset
     00107887  ___func_sprite_portal_tileset      sprite_portal_tileset
     00107887  _sprite_portal_tileset             sprite_portal_tileset
     00107949  ___func_sprite_turnip_tileset      sprite_turnip_tileset
     00107949  _sprite_turnip_tileset             sprite_turnip_tileset
ASxxxx Linker V03.00 + NoICE + sdld,  page 94.
Hexadecimal  [32-Bits]

Area                                    Addr        Size        Decimal Bytes (Attributes)
--------------------------------        ----        ----        ------- ----- ------------
_CODE_16                            00104000    00004000 =       16384. bytes (REL,CON)

      Value  Global                              Global Defined In Module
      -----  --------------------------------   ------------------------
     00107A0B  ___func_sprite_type7_tileset       sprite_type7_tileset
     00107A0B  _sprite_type7_tileset              sprite_type7_tileset
     00107ACD  ___func_sprite_ungulate_tileset    sprite_ungulate_tileset
     00107ACD  _sprite_ungulate_tileset           sprite_ungulate_tileset
     00107BAF  ___func_sprite_williemouse_tiles   sprite_williemouse_tileset
     00107BAF  _sprite_williemouse_tileset        sprite_williemouse_tileset
     00107CB1  ___func_sprite_woman_platform      sprite_woman_platform
     00107CB1  _sprite_woman_platform_metasprit   sprite_woman_platform
     00107CC5  _sprite_woman_platform_metasprit   sprite_woman_platform
     00107CD9  _sprite_woman_platform_metasprit   sprite_woman_platform
     00107CED  _sprite_woman_platform_metasprit   sprite_woman_platform
     00107D01  _sprite_woman_platform_metasprit   sprite_woman_platform
     00107D15  _sprite_woman_platform_metasprit   sprite_woman_platform
     00107D29  _sprite_woman_platform_metasprit   sprite_woman_platform
     00107D3D  _sprite_woman_platform_metasprit   sprite_woman_platform
     00107D51  _sprite_woman_platform_metasprit   sprite_woman_platform
     00107D65  _sprite_woman_platform_metasprit   sprite_woman_platform
     00107D79  _sprite_woman_platform_metasprit   sprite_woman_platform
     00107D8D  _sprite_woman_platform_metasprit   sprite_woman_platform
     00107DA1  _sprite_woman_platform_metasprit   sprite_woman_platform
     00107DBB  _sprite_woman_platform_animation   sprite_woman_platform
     00107DCB  _sprite_woman_platform_animation   sprite_woman_platform
     00107DCD  _sprite_woman_platform             sprite_woman_platform
     00107DE0  _trigger_13_interact               trigger_13_interact
     00107EFC  _trigger_46_interact               trigger_46_interact
ASxxxx Linker V03.00 + NoICE + sdld,  page 95.
Hexadecimal  [32-Bits]

Area                                    Addr        Size        Decimal Bytes (Attributes)
--------------------------------        ----        ----        ------- ----- ------------
_CODE_9                             00094000    00004000 =       16384. bytes (REL,CON)

      Value  Global                              Global Defined In Module
      -----  --------------------------------   ------------------------
     00094000  _printer_send_receive              gbprinter
     0009403A  _printer_send_byte                 gbprinter
     00094059  _printer_send_command              gbprinter
     00094084  _printer_print_tile                gbprinter
     0009411E  _printer_wait                      gbprinter
     0009414E  _gbprinter_detect                  gbprinter
     00094170  _gbprinter_print_overlay           gbprinter
     000943B3  _scroll_init                       scroll
     000943DD  _scroll_reset                      scroll
     000943FD  _scroll_update                     scroll
     00094514  _scroll_viewport                   scroll
     000949C2  _scroll_repaint                    scroll
     000949D2  _scroll_render_rows                scroll
     00094A5A  _scroll_queue_row                  scroll
     00094A7F  _scroll_queue_col                  scroll
     00094ACB  ___func_VM_GAMEBOY                 vm_gameboy
     00094ACB  _vm_set_sprites_visible            vm_gameboy
     00094AE2  _vm_input_wait                     vm_gameboy
     00094B0B  _vm_context_prepare                vm_gameboy
     00094B36  _vm_input_attach                   vm_gameboy
     00094B4C  _vm_input_detach                   vm_gameboy
     00094B60  _vm_input_get                      vm_gameboy
     00094B94  _vm_fade                           vm_gameboy
     00094BC6  _vm_timer_prepare                  vm_gameboy
     00094BF1  _vm_timer_set                      vm_gameboy
     00094C0C  _vm_timer_stop                     vm_gameboy
     00094C20  _vm_timer_reset                    vm_gameboy
     00094C37  _vm_get_tile_xy                    vm_gameboy
     00094D20  _vm_replace_tile                   vm_gameboy
     00094DC9  _vm_poll                           vm_gameboy
     00094E9B  _vm_set_sprite_mode                vm_gameboy
     00094EAF  _vm_replace_tile_xy                vm_gameboy
     00094FD1  _vm_rumble                         vm_gameboy
     00094FF1  _vm_load_tiles                     vm_gameboy
     00095006  _vm_load_tileset                   vm_gameboy
     00095123  ___func_bg_highway_tilemap         bg_highway_tilemap
     00095123  _bg_highway_tilemap                bg_highway_tilemap
     00095763  ___func_bg_hotelstreet_tilemap_a   bg_hotelstreet_tilemap_attr
     00095763  _bg_hotelstreet_tilemap_attr       bg_hotelstreet_tilemap_attr
     00095DA3  ___func_bg_logo_tileset            bg_logo_tileset
     00095DA3  _bg_logo_tileset                   bg_logo_tileset
     00096445  ___func_bg_placeholder1_tileset    bg_placeholder1_tileset
     00096445  _bg_placeholder1_tileset           bg_placeholder1_tileset
     000971B8  _song_rulz_undergroundcave_0_Dat   song_rulz_undergroundcave_0_
     000971CD  _logo_init                         logo
     000971DD  _logo_update                       logo
     000971DE  _shmup_init                        shmup
     0009727A  _shmup_update                      shmup
     000978F9  _topdown_init                      topdown
     00097990  _topdown_update                    topdown

ASxxxx Linker V03.00 + NoICE + sdld,  page 96.
Hexadecimal  [32-Bits]

Area                                    Addr        Size        Decimal Bytes (Attributes)
--------------------------------        ----        ----        ------- ----- ------------
_HEADER_SIO0                        00000000    00000004 =           4. bytes (ABS,CON)

      Value  Global                              Global Defined In Module
      -----  --------------------------------   ------------------------
ASxxxx Linker V03.00 + NoICE + sdld,  page 97.
Hexadecimal  [32-Bits]

Area                                    Addr        Size        Decimal Bytes (Attributes)
--------------------------------        ----        ----        ------- ----- ------------
_HEADER_TIMER0                      00000000    00000004 =           4. bytes (ABS,CON)

      Value  Global                              Global Defined In Module
      -----  --------------------------------   ------------------------
ASxxxx Linker V03.00 + NoICE + sdld,  page 98.
Hexadecimal  [32-Bits]

Area                                    Addr        Size        Decimal Bytes (Attributes)
--------------------------------        ----        ----        ------- ----- ------------
_CODE_12                            000C4000    00004000 =       16384. bytes (REL,CON)

      Value  Global                              Global Defined In Module
      -----  --------------------------------   ------------------------
     000C4000  _projectiles_init                  projectiles
     000C4040  _projectile_launch                 projectiles
     000C4449  ___func_bg_city_hall_proto_tilem   bg_city_hall_proto_tilemap_a
     000C4449  _bg_city_hall_proto_tilemap_attr   bg_city_hall_proto_tilemap_a
     000C4849  ___func_bg_city_hall_proto_tilem   bg_city_hall_proto_tilemap
     000C4849  _bg_city_hall_proto_tilemap        bg_city_hall_proto_tilemap
     000C4C49  ___func_bg_outside_tilemap_attr    bg_outside_tilemap_attr
     000C4C49  _bg_outside_tilemap_attr           bg_outside_tilemap_attr
     000C5049  ___func_bg_outside_tilemap         bg_outside_tilemap
     000C5049  _bg_outside_tilemap                bg_outside_tilemap
     000C5449  ___func_bg_police_station_tilema   bg_police_station_tilemap_at
     000C5449  _bg_police_station_tilemap_attr    bg_police_station_tilemap_at
     000C5849  ___func_bg_police_station_tilema   bg_police_station_tilemap
     000C5849  _bg_police_station_tilemap         bg_police_station_tilemap
     000C5C49  ___func_bg_sample_town_tileset     bg_sample_town_tileset
     000C5C49  _bg_sample_town_tileset            bg_sample_town_tileset
     000C606B  ___func_bg_stars_tilemap           bg_stars_tilemap
     000C606B  _bg_stars_tilemap                  bg_stars_tilemap
     000C646B  ___func_bg_underground_tilemap_a   bg_underground_tilemap_attr
     000C646B  _bg_underground_tilemap_attr       bg_underground_tilemap_attr
     000C686B  ___func_bg_underground_tilemap     bg_underground_tilemap
     000C686B  _bg_underground_tilemap            bg_underground_tilemap
     000C7184  _song_rulz_outside_0_Data          song_rulz_outside_0_Data
     000C76B2  _song_rulz_spaceemergency_0_Data   song_rulz_spaceemergency_0_D
     000C76C7  _scene_menu_3_init                 scene_menu_3_init
     000C7ADD  _trigger_28_interact               trigger_28_interact
     000C7B34  _trigger_switchy_interact          trigger_switchy_interact
ASxxxx Linker V03.00 + NoICE + sdld,  page 99.
Hexadecimal  [32-Bits]

Area                                    Addr        Size        Decimal Bytes (Attributes)
--------------------------------        ----        ----        ------- ----- ------------
_CODE_7                             00074000    00004000 =       16384. bytes (REL,CON)

      Value  Global                              Global Defined In Module
      -----  --------------------------------   ------------------------
     00074000  ___func_VM_MATH                    vm_math
     00074000  _vm_sin_scale                      vm_math
     000740A2  _vm_cos_scale                      vm_math
     00074146  ___func_bg_city_hall_proto_tiles   bg_city_hall_proto_tileset
     00074146  _bg_city_hall_proto_tileset        bg_city_hall_proto_tileset
     00075519  _song_rulz_battletheme_0_Data      song_rulz_battletheme_0_Data
     00075F9F  _song_rulz_fastpacespeedrace_0_D   song_rulz_fastpacespeedrace_
     00075FB4  _scene_battle_init                 scene_battle_init
     00076971  ___func_scene_path_to_sample_tow   scene_path_to_sample_town_co
     00076971  _scene_path_to_sample_town_colli   scene_path_to_sample_town_co
     000774C3  _script_17                         script_17

ASxxxx Linker V03.00 + NoICE + sdld,  page 100.
Hexadecimal  [32-Bits]

Area                                    Addr        Size        Decimal Bytes (Attributes)
--------------------------------        ----        ----        ------- ----- ------------
_CODE_15                            000F4000    00004000 =       16384. bytes (REL,CON)

      Value  Global                              Global Defined In Module
      -----  --------------------------------   ------------------------
     000F4000  ___func_VM_MUSIC                   vm_music
     000F4000  _vm_music_play                     vm_music
     000F4044  _vm_music_stop                     vm_music
     000F4066  _vm_music_mute                     vm_music
     000F409C  _vm_music_routine                  vm_music
     000F40C3  _vm_music_setpos                   vm_music
     000F40CD  _vm_sound_mastervol                vm_music
     000F40D3  _vm_sfx_play                       vm_music
     000F4146  _actor_56_interact                 actor_56_interact
     000F429E  ___func_bg_black_tilemap           bg_black_tilemap
     000F429E  _bg_black_tilemap                  bg_black_tilemap
     000F4406  ___func_bg_cave_tilemap_attr       bg_cave_tilemap_attr
     000F4406  _bg_cave_tilemap_attr              bg_cave_tilemap_attr
     000F456E  ___func_bg_cave_tilemap            bg_cave_tilemap
     000F456E  _bg_cave_tilemap                   bg_cave_tilemap
     000F46D6  ___func_bg_hidden_cave_tileset     bg_hidden_cave_tileset
     000F46D6  _bg_hidden_cave_tileset            bg_hidden_cave_tileset
     000F4838  ___func_bg_house_tilemap_attr      bg_house_tilemap_attr
     000F4838  _bg_house_tilemap_attr             bg_house_tilemap_attr
     000F49A0  ___func_bg_house_tilemap           bg_house_tilemap
     000F49A0  _bg_house_tilemap                  bg_house_tilemap
     000F4B08  ___func_bg_house2_tilemap          bg_house2_tilemap
     000F4B08  _bg_house2_tilemap                 bg_house2_tilemap
     000F4C70  ___func_bg_insidestation2_tilema   bg_insidestation2_tilemap_at
     000F4C70  _bg_insidestation2_tilemap_attr    bg_insidestation2_tilemap_at
     000F4DD8  ___func_bg_insidestation2_tilema   bg_insidestation2_tilemap
     000F4DD8  _bg_insidestation2_tilemap         bg_insidestation2_tilemap
     000F4F40  ___func_bg_launch_site_tilemap_a   bg_launch_site_tilemap_attr
     000F4F40  _bg_launch_site_tilemap_attr       bg_launch_site_tilemap_attr
     000F50A8  ___func_bg_launch_site_tilemap     bg_launch_site_tilemap
     000F50A8  _bg_launch_site_tilemap            bg_launch_site_tilemap
     000F5210  ___func_bg_logo_tilemap            bg_logo_tilemap
     000F5210  _bg_logo_tilemap                   bg_logo_tilemap
     000F5378  ___func_bg_menu_page1_tilemap      bg_menu_page1_tilemap
     000F5378  _bg_menu_page1_tilemap             bg_menu_page1_tilemap
     000F54E0  ___func_bg_menu_page2_tilemap      bg_menu_page2_tilemap
     000F54E0  _bg_menu_page2_tilemap             bg_menu_page2_tilemap
     000F5648  ___func_bg_menu_tilemap            bg_menu_tilemap
     000F5648  _bg_menu_tilemap                   bg_menu_tilemap
     000F57B0  ___func_bg_placeholder1_tilemap_   bg_placeholder1_tilemap_attr
     000F57B0  _bg_placeholder1_tilemap_attr      bg_placeholder1_tilemap_attr
     000F5918  ___func_bg_placeholder1_tilemap    bg_placeholder1_tilemap
     000F5918  _bg_placeholder1_tilemap           bg_placeholder1_tilemap
     000F5A80  ___func_bg_room_tilemap_attr       bg_room_tilemap_attr
     000F5A80  _bg_room_tilemap_attr              bg_room_tilemap_attr
     000F5BE8  ___func_bg_room_tilemap            bg_room_tilemap
     000F5BE8  _bg_room_tilemap                   bg_room_tilemap
     000F5D50  ___func_bg_stars_tileset           bg_stars_tileset
     000F5D50  _bg_stars_tileset                  bg_stars_tileset
     000F5DA2  ___func_bg_titlescreen_tilemap_a   bg_titlescreen_tilemap_attr
ASxxxx Linker V03.00 + NoICE + sdld,  page 101.
Hexadecimal  [32-Bits]

Area                                    Addr        Size        Decimal Bytes (Attributes)
--------------------------------        ----        ----        ------- ----- ------------
_CODE_15                            000F4000    00004000 =       16384. bytes (REL,CON)

      Value  Global                              Global Defined In Module
      -----  --------------------------------   ------------------------
     000F5DA2  _bg_titlescreen_tilemap_attr       bg_titlescreen_tilemap_attr
     000F5F0A  ___func_bg_titlescreen_tilemap     bg_titlescreen_tilemap
     000F5F0A  _bg_titlescreen_tilemap            bg_titlescreen_tilemap
     000F6072  ___func_scene_17_collisions        scene_17_collisions
     000F6072  _scene_17_collisions               scene_17_collisions
     000F61DA  ___func_scene_23_collisions        scene_23_collisions
     000F61DA  _scene_23_collisions               scene_23_collisions
     000F6342  ___func_scene_battle_collisions    scene_battle_collisions
     000F6342  _scene_battle_collisions           scene_battle_collisions
     000F64AA  ___func_scene_cave_actors          scene_cave_actors
     000F64AA  _scene_cave_actors                 scene_cave_actors
     000F6616  ___func_scene_cave_collisions      scene_cave_collisions
     000F6616  _scene_cave_collisions             scene_cave_collisions
     000F677E  ___func_scene_dream_collisions     scene_dream_collisions
     000F677E  _scene_dream_collisions            scene_dream_collisions
     000F68E6  ___func_scene_launch_site_collis   scene_launch_site_collisions
     000F68E6  _scene_launch_site_collisions      scene_launch_site_collisions
     000F6A4E  ___func_scene_logo_collisions      scene_logo_collisions
     000F6A4E  _scene_logo_collisions             scene_logo_collisions
     000F6BB6  ___func_scene_menu_3_collisions    scene_menu_3_collisions
     000F6BB6  _scene_menu_3_collisions           scene_menu_3_collisions
     000F6D1E  ___func_scene_menu_page_1_actors   scene_menu_page_1_actors
     000F6D1E  _scene_menu_page_1_actors          scene_menu_page_1_actors
     000F6E8A  ___func_scene_menu_page_1_collis   scene_menu_page_1_collisions
     000F6E8A  _scene_menu_page_1_collisions      scene_menu_page_1_collisions
     000F6FF2  ___func_scene_menu_page_2_collis   scene_menu_page_2_collisions
     000F6FF2  _scene_menu_page_2_collisions      scene_menu_page_2_collisions
     000F715A  ___func_scene_player_s_house_col   scene_player_s_house_collisi
     000F715A  _scene_player_s_house_collisions   scene_player_s_house_collisi
     000F72C2  ___func_scene_title_screen_colli   scene_title_screen_collision
     000F72C2  _scene_title_screen_collisions     scene_title_screen_collision
     000F742A  ___func_scene_top_house_collisio   scene_top_house_collisions
     000F742A  _scene_top_house_collisions        scene_top_house_collisions
     000F7592  ___func_sprite_enemy_ship_tilese   sprite_enemy_ship_tileset
     000F7592  _sprite_enemy_ship_tileset         sprite_enemy_ship_tileset
     000F76F4  ___func_sprite_npc004_tileset      sprite_npc004_tileset
     000F76F4  _sprite_npc004_tileset             sprite_npc004_tileset
     000F7876  ___func_sprite_npc005_tileset      sprite_npc005_tileset
     000F7876  _sprite_npc005_tileset             sprite_npc005_tileset
     000F79F8  ___func_sprite_npc006_tileset      sprite_npc006_tileset
     000F79F8  _sprite_npc006_tileset             sprite_npc006_tileset
     000F7B7A  ___func_sprite_player_tileset      sprite_player_tileset
     000F7B7A  _sprite_player_tileset             sprite_player_tileset
     000F7CFC  ___func_sprite_robot_tileset       sprite_robot_tileset
     000F7CFC  _sprite_robot_tileset              sprite_robot_tileset
     000F7E7E  ___func_sprite_space_mine_tilese   sprite_space_mine_tileset
     000F7E7E  _sprite_space_mine_tileset         sprite_space_mine_tileset

ASxxxx Linker V03.00 + NoICE + sdld,  page 102.
Hexadecimal  [32-Bits]

Area                                    Addr        Size        Decimal Bytes (Attributes)
--------------------------------        ----        ----        ------- ----- ------------
_CODE_8                             00084000    00004000 =       16384. bytes (REL,CON)

      Value  Global                              Global Defined In Module
      -----  --------------------------------   ------------------------
     00084000  ___func_VM_UI                      vm_ui
     00084000  _vm_display_text                   vm_ui
     0008406E  _vm_switch_text_layer              vm_ui
     00084088  _vm_overlay_setpos                 vm_ui
     000840A2  _vm_overlay_wait                   vm_ui
     00084133  _vm_overlay_move_to                vm_ui
     00084177  _vm_overlay_set_scroll             vm_ui
     000841B4  _vm_overlay_clear                  vm_ui
     0008428D  _vm_overlay_show                   vm_ui
     000842DB  _vm_choice                         vm_ui
     000843F6  _vm_set_font                       vm_ui
     00084427  _vm_overlay_scroll                 vm_ui
     00084487  _vm_overlay_set_submap             vm_ui
     000844F7  _vm_overlay_set_submap_ex          vm_ui
     000845FA  _vm_overlay_set_map                vm_ui
     0008475E  _vm_set_text_sound                 vm_ui
     00084777  _actor_47_interact                 actor_47_interact
     000849CC  ___func_bg_insidestation2_tilese   bg_insidestation2_tileset
     000849CC  _bg_insidestation2_tileset         bg_insidestation2_tileset
     000851BE  ___func_bg_menu_page1_tileset      bg_menu_page1_tileset
     000851BE  _bg_menu_page1_tileset             bg_menu_page1_tileset
     000858F0  ___func_bg_overworld_pixelnook_i   bg_overworld_pixelnook_indu_
     000858F0  _bg_overworld_pixelnook_indu_til   bg_overworld_pixelnook_indu_
     000861B2  ___func_bg_overworld_playground_   bg_overworld_playground_pix_
     000861B2  _bg_overworld_playground_pix_til   bg_overworld_playground_pix_
     00086934  ___func_bg_restr_tileset           bg_restr_tileset
     00086934  _bg_restr_tileset                  bg_restr_tileset
     000878A7  _song_rulz_pause_underground_0_D   song_rulz_pause_underground_
     000878BC  ___func_scene_26_triggers          scene_26_triggers
     000878BC  _scene_26_triggers                 scene_26_triggers
     000878D4  _adventure_init                    adventure
     000878E9  _adventure_update                  adventure

ASxxxx Linker V03.00 + NoICE + sdld,  page 103.
Hexadecimal  [32-Bits]

Area                                    Addr        Size        Decimal Bytes (Attributes)
--------------------------------        ----        ----        ------- ----- ------------
_CODE_3                             00034000    00004000 =       16384. bytes (REL,CON)

      Value  Global                              Global Defined In Module
      -----  --------------------------------   ------------------------
     00034000  ___func_VM_MAIN                    vm
     00034000  _vm_call                           vm
     00034042  _vm_ret                            vm
     000340A1  _vm_call_far                       vm
     0003411E  _vm_ret_far                        vm
     0003418D  _vm_push                           vm
     000341B7  _vm_pop                            vm
     000341F2  _vm_loop                           vm
     0003427F  _vm_jump                           vm
     0003428B  _wait_frames                       vm
     00034302  _vm_invoke                         vm
     0003442E  _vm_join                           vm
     00034487  _vm_terminate                      vm
     000344B4  _vm_if                             vm
     000345F8  _vm_if_const                       vm
     0003470C  _vm_push_value                     vm
     0003475E  _vm_push_value_ind                 vm
     000347D3  _vm_push_reference                 vm
     0003482A  _vm_reserve                        vm
     00034857  _vm_set                            vm
     000348B8  _vm_set_const                      vm
     000348E4  _vm_get_tlocal                     vm
     00034971  _vm_test_terminate                 vm
     0003497C  _vm_idle                           vm
     00034988  _vm_get_uint8                      vm
     000349BB  _vm_get_int8                       vm
     000349EF  _vm_get_int16                      vm
     00034A31  _vm_set_uint8                      vm
     00034A5D  _vm_set_int8                       vm
     00034A89  _vm_set_int16                      vm
     00034AC8  _vm_set_const_int8                 vm
     00034AD1  _vm_set_const_int16                vm
     00034ADD  _vm_init_rng                       vm
     00034B09  _vm_rand                           vm
     00034B8E  _vm_lock                           vm
     00034B9D  _vm_unlock                         vm
     00034BB0  _vm_raise                          vm
     00034BF2  _vm_set_indirect                   vm
     00034C6D  _vm_get_indirect                   vm
     00034CE8  _vm_poll_loaded                    vm
     00034D17  _vm_memset                         vm
     00034D5C  _vm_memcpy                         vm
     00034DDC  _script_runner_init                vm
     00034E98  _script_execute                    vm
     00034FDD  _script_terminate                  vm
     00035043  _script_detach_hthread             vm
     00035080  ___func_bg_leaving_earth_tileset   bg_leaving_earth_tileset
     00035080  _bg_leaving_earth_tileset          bg_leaving_earth_tileset
     00035342  ___func_font_gbs_variable_width    font_gbs_variable_width
     000361BD  _font_gbs_variable_width           font_gbs_variable_width
ASxxxx Linker V03.00 + NoICE + sdld,  page 104.
Hexadecimal  [32-Bits]

Area                                    Addr        Size        Decimal Bytes (Attributes)
--------------------------------        ----        ----        ------- ----- ------------
_CODE_3                             00034000    00004000 =       16384. bytes (REL,CON)

      Value  Global                              Global Defined In Module
      -----  --------------------------------   ------------------------
     00036E96  _song_rulz_lightmood_0_Data        song_rulz_lightmood_0_Data
     00036EAB  ___func_scene_sample_town_sprite   scene_sample_town_sprites
     00036EAB  _scene_sample_town_sprites         scene_sample_town_sprites
     00036EC6  _platform_init                     platform
     0003707D  _platform_update                   platform

ASxxxx Linker V03.00 + NoICE + sdld,  page 105.
Hexadecimal  [32-Bits]

Area                                    Addr        Size        Decimal Bytes (Attributes)
--------------------------------        ----        ----        ------- ----- ------------
_CODE_11                            000B4000    00004000 =       16384. bytes (REL,CON)

      Value  Global                              Global Defined In Module
      -----  --------------------------------   ------------------------
     000B4000  _actor_74_interact                 actor_74_interact
     000B45DD  ___func_bg_cave_tileset            bg_cave_tileset
     000B45DD  _bg_cave_tileset                   bg_cave_tileset
     000B475F  ___func_bg_house2_tileset          bg_house2_tileset
     000B475F  _bg_house2_tileset                 bg_house2_tileset
     000B4D71  ___func_bg_launch_site_tileset     bg_launch_site_tileset
     000B4D71  _bg_launch_site_tileset            bg_launch_site_tileset
     000B5313  ___func_bg_parallax_tilemap_attr   bg_parallax_tilemap_attr
     000B5313  _bg_parallax_tilemap_attr          bg_parallax_tilemap_attr
     000B58B3  ___func_bg_parallax_tilemap        bg_parallax_tilemap
     000B58B3  _bg_parallax_tilemap               bg_parallax_tilemap
     000B636C  _song_drum_example_Data            song_drum_example_Data
     000B689A  _song_echo_example_Data            song_echo_example_Data
     000B6DC8  _song_rulz_intro_0_Data            song_rulz_intro_0_Data
     000B6DDD  ___func_scene_29_collisions        scene_29_collisions
     000B6DDD  _scene_29_collisions               scene_29_collisions
     000B741D  ___func_scene_30_collisions        scene_30_collisions
     000B741D  _scene_30_collisions               scene_30_collisions
     000B7A5D  ___func_scene_menu_page_1_sprite   scene_menu_page_1_sprites
     000B7A5D  _scene_menu_page_1_sprites         scene_menu_page_1_sprites
     000B7A60  ___func_scene_parallax_example_c   scene_parallax_example_colli
     000B7A60  _scene_parallax_example_collisio   scene_parallax_example_colli

ASxxxx Linker V03.00 + NoICE + sdld,  page 106.
Hexadecimal  [32-Bits]

Area                                    Addr        Size        Decimal Bytes (Attributes)
--------------------------------        ----        ----        ------- ----- ------------
_CODE_6                             00064000    00003FFF =       16383. bytes (REL,CON)

      Value  Global                              Global Defined In Module
      -----  --------------------------------   ------------------------
     00064000  ___func_bg_highway_tileset         bg_highway_tileset
     00064000  _bg_highway_tileset                bg_highway_tileset
     00064BA2  ___func_bg_hotelstreet_tileset     bg_hotelstreet_tileset
     00064BA2  _bg_hotelstreet_tileset            bg_hotelstreet_tileset
     00065754  ___func_bg_platform_path_tilemap   bg_platform_path_tilemap_att
     00065754  _bg_platform_path_tilemap_attr     bg_platform_path_tilemap_att
     000662A6  ___func_bg_platform_path_tilemap   bg_platform_path_tilemap
     000662A6  _bg_platform_path_tilemap          bg_platform_path_tilemap
     00066DF8  ___func_bg_titlescreen_tileset     bg_titlescreen_tileset
     00066DF8  _bg_titlescreen_tileset            bg_titlescreen_tileset
     000679DA  ___func_scene_battle_sprites       scene_battle_sprites
     000679DA  _scene_battle_sprites              scene_battle_sprites
     000679DD  ___func_sprite_inside_seven_elev   sprite_inside_seven_eleven_t
     000679DD  _sprite_inside_seven_eleven_tile   sprite_inside_seven_eleven_t

ASxxxx Linker V03.00 + NoICE + sdld,  page 107.
Hexadecimal  [32-Bits]

Area                                    Addr        Size        Decimal Bytes (Attributes)
--------------------------------        ----        ----        ------- ----- ------------
_CODE_10                            000A4000    00004000 =       16384. bytes (REL,CON)

      Value  Global                              Global Defined In Module
      -----  --------------------------------   ------------------------
     000A4000  ___func_bg_hotelstreet_tilemap     bg_hotelstreet_tilemap
     000A4000  _bg_hotelstreet_tilemap            bg_hotelstreet_tilemap
     000A4640  ___func_bg_overworld_pixelnook_i   bg_overworld_pixelnook_indu_
     000A4640  _bg_overworld_pixelnook_indu_til   bg_overworld_pixelnook_indu_
     000A4C80  ___func_bg_overworld_pixelnook_i   bg_overworld_pixelnook_indu_
     000A4C80  _bg_overworld_pixelnook_indu_til   bg_overworld_pixelnook_indu_
     000A52C0  ___func_bg_overworld_playground_   bg_overworld_playground_pix_
     000A52C0  _bg_overworld_playground_pix_til   bg_overworld_playground_pix_
     000A5900  ___func_bg_overworld_playground_   bg_overworld_playground_pix_
     000A5900  _bg_overworld_playground_pix_til   bg_overworld_playground_pix_
     000A5F40  ___func_bg_restr_tilemap_attr      bg_restr_tilemap_attr
     000A5F40  _bg_restr_tilemap_attr             bg_restr_tilemap_attr
     000A6580  ___func_bg_restr_tilemap           bg_restr_tilemap
     000A6580  _bg_restr_tilemap                  bg_restr_tilemap
     000A6BC0  ___func_scene_25_collisions        scene_25_collisions
     000A6BC0  _scene_25_collisions               scene_25_collisions
     000A7200  ___func_scene_26_collisions        scene_26_collisions
     000A7200  _scene_26_collisions               scene_26_collisions
     000A7840  ___func_scene_28_collisions        scene_28_collisions
     000A7840  _scene_28_collisions               scene_28_collisions
     000A7E80  _trigger_38_interact               trigger_38_interact
ASxxxx Linker V03.00 + NoICE + sdld,  page 108.
Hexadecimal  [32-Bits]

Area                                    Addr        Size        Decimal Bytes (Attributes)
--------------------------------        ----        ----        ------- ----- ------------
_CODE_2                             00024000    00003FFF =       16383. bytes (REL,CON)

      Value  Global                              Global Defined In Module
      -----  --------------------------------   ------------------------
     00024000  ___func_bg_leaving_earth_tilemap   bg_leaving_earth_tilemap_att
     00024000  _bg_leaving_earth_tilemap_attr     bg_leaving_earth_tilemap_att
     000251EE  ___func_bg_leaving_earth_tilemap   bg_leaving_earth_tilemap
     000251EE  _bg_leaving_earth_tilemap          bg_leaving_earth_tilemap
     00026D85  _song_rulz_gonaspace_0_Data        song_rulz_gonaspace_0_Data
     00026D9A  ___func_scene_space_battle_colli   scene_space_battle_collision
     00026D9A  _scene_space_battle_collisions     scene_space_battle_collision
     00027F88  _trigger_12_interact               trigger_12_interact

ASxxxx Linker V03.00 + NoICE + sdld,  page 109.
Hexadecimal  [32-Bits]

Area                                    Addr        Size        Decimal Bytes (Attributes)
--------------------------------        ----        ----        ------- ----- ------------
_CODE_5                             00054000    00004000 =       16384. bytes (REL,CON)

      Value  Global                              Global Defined In Module
      -----  --------------------------------   ------------------------
     00054000  ___func_bg_parallax_tileset        bg_parallax_tileset
     00054000  _bg_parallax_tileset               bg_parallax_tileset
     00054BF2  ___func_bg_police_station_tilese   bg_police_station_tileset
     00054BF2  _bg_police_station_tileset         bg_police_station_tileset
     000557D4  ___func_bg_sample_town_tilemap     bg_sample_town_tilemap
     000557D4  _bg_sample_town_tilemap            bg_sample_town_tilemap
     00056414  ___func_bg_town_tileset            bg_town_tileset
     00056414  _bg_town_tileset                   bg_town_tileset
     00057016  ___func_scene_24_sprites           scene_24_sprites
     00057016  _scene_24_sprites                  scene_24_sprites
     00057019  ___func_scene_sample_town_collis   scene_sample_town_collisions
     00057019  _scene_sample_town_collisions      scene_sample_town_collisions
     00057C59  _trigger_fight_interact            trigger_fight_interact

ASxxxx Linker V03.00 + NoICE + sdld,  page 110.
Hexadecimal  [32-Bits]

Area                                    Addr        Size        Decimal Bytes (Attributes)
--------------------------------        ----        ----        ------- ----- ------------
_HEADER_LCD0                        00000000    00000003 =           3. bytes (ABS,CON)

      Value  Global                              Global Defined In Module
      -----  --------------------------------   ------------------------
ASxxxx Linker V03.00 + NoICE + sdld,  page 111.

Files Linked                              [ module(s) ]

C:\Users\user\AppData\Local\Temp/_gbstools/gbdk/lib/small/asxxxx/gb/crt0.o
                                          [ Runtime ]
C:/Users/user/AppData/Local/Temp/_gbsbuild/obj/___sdcc_bcall_ehl.rel
                                          [  ]
C:/Users/user/AppData/Local/Temp/_gbsbuild/obj/absolute.rel
                                          [ absolute ]
C:/Users/user/AppData/Local/Temp/_gbsbuild/obj/actor.rel
                                          [ actor ]
C:/Users/user/AppData/Local/Temp/_gbsbuild/obj/bankdata.rel
                                          [ bankdata ]
C:/Users/user/AppData/Local/Temp/_gbsbuild/obj/bootstrap.rel
                                          [  ]
C:/Users/user/AppData/Local/Temp/_gbsbuild/obj/camera.rel
                                          [ camera ]
C:/Users/user/AppData/Local/Temp/_gbsbuild/obj/core.rel
                                          [ core ]
C:/Users/user/AppData/Local/Temp/_gbsbuild/obj/crash_handler.rel
                                          [  ]
C:/Users/user/AppData/Local/Temp/_gbsbuild/obj/data_manager.rel
                                          [ data_manager ]
C:/Users/user/AppData/Local/Temp/_gbsbuild/obj/events.rel
                                          [ events ]
C:/Users/user/AppData/Local/Temp/_gbsbuild/obj/fade_manager.rel
                                          [ fade_manager ]
C:/Users/user/AppData/Local/Temp/_gbsbuild/obj/flasher_s.rel
                                          [  ]
C:/Users/user/AppData/Local/Temp/_gbsbuild/obj/flasher.rel
                                          [ flasher ]
C:/Users/user/AppData/Local/Temp/_gbsbuild/obj/game_time.rel
                                          [ game_time ]
C:/Users/user/AppData/Local/Temp/_gbsbuild/obj/gbprinter.rel
                                          [ gbprinter ]
C:/Users/user/AppData/Local/Temp/_gbsbuild/obj/input.rel
                                          [ input ]
C:/Users/user/AppData/Local/Temp/_gbsbuild/obj/interrupt_sio.rel
                                          [  ]
C:/Users/user/AppData/Local/Temp/_gbsbuild/obj/interrupt_timer.rel
                                          [  ]
C:/Users/user/AppData/Local/Temp/_gbsbuild/obj/interrupts.rel
                                          [ interrupts ]
C:/Users/user/AppData/Local/Temp/_gbsbuild/obj/load_save.rel
                                          [ load_save ]
C:/Users/user/AppData/Local/Temp/_gbsbuild/obj/math.rel
                                          [ math ]
C:/Users/user/AppData/Local/Temp/_gbsbuild/obj/music_manager.rel
                                          [ music_manager ]
C:/Users/user/AppData/Local/Temp/_gbsbuild/obj/palette.rel
                                          [ palette ]
C:/Users/user/AppData/Local/Temp/_gbsbuild/obj/parallax.rel
                                          [ parallax ]
C:/Users/user/AppData/Local/Temp/_gbsbuild/obj/projectiles.rel
                                          [ projectiles ]
C:/Users/user/AppData/Local/Temp/_gbsbuild/obj/scroll_a.rel
                                          [  ]
C:/Users/user/AppData/Local/Temp/_gbsbuild/obj/scroll.rel
                                          [ scroll ]
C:/Users/user/AppData/Local/Temp/_gbsbuild/obj/set_tile_submap.rel
                                          [  ]
C:/Users/user/AppData/Local/Temp/_gbsbuild/obj/sfx_player.rel
                                          [ sfx_player ]
C:/Users/user/AppData/Local/Temp/_gbsbuild/obj/sgb_border.rel
                                          [ sgb_border ]
C:/Users/user/AppData/Local/Temp/_gbsbuild/obj/sio.rel
                                          [ sio ]
C:/Users/user/AppData/Local/Temp/_gbsbuild/obj/states_caller.rel
                                          [  ]
C:/Users/user/AppData/Local/Temp/_gbsbuild/obj/system.rel
                                          [ system ]
C:/Users/user/AppData/Local/Temp/_gbsbuild/obj/trigger.rel
                                          [ trigger ]
C:/Users/user/AppData/Local/Temp/_gbsbuild/obj/ui_a.rel
                                          [  ]
C:/Users/user/AppData/Local/Temp/_gbsbuild/obj/ui.rel
                                          [ ui ]
C:/Users/user/AppData/Local/Temp/_gbsbuild/obj/vm_actor.rel
                                          [ vm_actor ]
C:/Users/user/AppData/Local/Temp/_gbsbuild/obj/vm_camera.rel
                                          [ vm_camera ]
C:/Users/user/AppData/Local/Temp/_gbsbuild/obj/vm_gameboy.rel
                                          [ vm_gameboy ]
C:/Users/user/AppData/Local/Temp/_gbsbuild/obj/vm_gbprinter.rel
                                          [ vm_gbprinter ]
C:/Users/user/AppData/Local/Temp/_gbsbuild/obj/vm_instructions.rel
                                          [ vm_instructions ]
C:/Users/user/AppData/Local/Temp/_gbsbuild/obj/vm_load_save.rel
                                          [ vm_load_save ]
C:/Users/user/AppData/Local/Temp/_gbsbuild/obj/vm_math.rel
                                          [ vm_math ]
C:/Users/user/AppData/Local/Temp/_gbsbuild/obj/vm_music.rel
                                          [ vm_music ]
C:/Users/user/AppData/Local/Temp/_gbsbuild/obj/vm_palette.rel
                                          [ vm_palette ]
C:/Users/user/AppData/Local/Temp/_gbsbuild/obj/vm_projectiles.rel
                                          [ vm_projectiles ]
C:/Users/user/AppData/Local/Temp/_gbsbuild/obj/vm_rtc.rel
                                          [ vm_rtc ]
C:/Users/user/AppData/Local/Temp/_gbsbuild/obj/vm_scene.rel
                                          [ vm_scene ]
C:/Users/user/AppData/Local/Temp/_gbsbuild/obj/vm_sgb.rel
                                          [ vm_sgb ]
C:/Users/user/AppData/Local/Temp/_gbsbuild/obj/vm_sio.rel
                                          [ vm_sio ]
C:/Users/user/AppData/Local/Temp/_gbsbuild/obj/vm_ui_a.rel
                                          [ vm_ui_a ]
C:/Users/user/AppData/Local/Temp/_gbsbuild/obj/vm_ui.rel
                                          [ vm_ui ]
C:/Users/user/AppData/Local/Temp/_gbsbuild/obj/vm.rel
                                          [ vm ]
C:/Users/user/AppData/Local/Temp/_gbsbuild/obj/actor_10_interact.rel
                                          [ actor_10_interact ]
C:/Users/user/AppData/Local/Temp/_gbsbuild/obj/actor_10_update.rel
                                          [ actor_10_update ]
C:/Users/user/AppData/Local/Temp/_gbsbuild/obj/actor_11_interact.rel
                                          [ actor_11_interact ]
C:/Users/user/AppData/Local/Temp/_gbsbuild/obj/actor_11_update.rel
                                          [ actor_11_update ]
C:/Users/user/AppData/Local/Temp/_gbsbuild/obj/actor_12_interact.rel
                                          [ actor_12_interact ]
C:/Users/user/AppData/Local/Temp/_gbsbuild/obj/actor_12_update.rel
                                          [ actor_12_update ]
C:/Users/user/AppData/Local/Temp/_gbsbuild/obj/actor_13_interact.rel
                                          [ actor_13_interact ]
C:/Users/user/AppData/Local/Temp/_gbsbuild/obj/actor_13_update.rel
                                          [ actor_13_update ]
C:/Users/user/AppData/Local/Temp/_gbsbuild/obj/actor_14_interact.rel
                                          [ actor_14_interact ]
C:/Users/user/AppData/Local/Temp/_gbsbuild/obj/actor_14_update.rel
                                          [ actor_14_update ]
C:/Users/user/AppData/Local/Temp/_gbsbuild/obj/actor_15_interact.rel
                                          [ actor_15_interact ]
C:/Users/user/AppData/Local/Temp/_gbsbuild/obj/actor_15_update.rel
                                          [ actor_15_update ]
C:/Users/user/AppData/Local/Temp/_gbsbuild/obj/actor_16_interact.rel
                                          [ actor_16_interact ]
C:/Users/user/AppData/Local/Temp/_gbsbuild/obj/actor_16_update.rel
                                          [ actor_16_update ]
C:/Users/user/AppData/Local/Temp/_gbsbuild/obj/actor_17_interact.rel
                                          [ actor_17_interact ]
C:/Users/user/AppData/Local/Temp/_gbsbuild/obj/actor_17_update.rel
                                          [ actor_17_update ]
C:/Users/user/AppData/Local/Temp/_gbsbuild/obj/actor_18_interact.rel
                                          [ actor_18_interact ]
C:/Users/user/AppData/Local/Temp/_gbsbuild/obj/actor_19_interact.rel
                                          [ actor_19_interact ]
C:/Users/user/AppData/Local/Temp/_gbsbuild/obj/actor_20_interact.rel
                                          [ actor_20_interact ]
C:/Users/user/AppData/Local/Temp/_gbsbuild/obj/actor_20_update.rel
                                          [ actor_20_update ]
C:/Users/user/AppData/Local/Temp/_gbsbuild/obj/actor_21_interact.rel
                                          [ actor_21_interact ]
C:/Users/user/AppData/Local/Temp/_gbsbuild/obj/actor_22_interact.rel
                                          [ actor_22_interact ]
C:/Users/user/AppData/Local/Temp/_gbsbuild/obj/actor_23_interact.rel
                                          [ actor_23_interact ]
C:/Users/user/AppData/Local/Temp/_gbsbuild/obj/actor_24_interact.rel
                                          [ actor_24_interact ]
C:/Users/user/AppData/Local/Temp/_gbsbuild/obj/actor_25_interact.rel
                                          [ actor_25_interact ]
C:/Users/user/AppData/Local/Temp/_gbsbuild/obj/actor_26_interact.rel
                                          [ actor_26_interact ]
C:/Users/user/AppData/Local/Temp/_gbsbuild/obj/actor_3_interact.rel
                                          [ actor_3_interact ]
C:/Users/user/AppData/Local/Temp/_gbsbuild/obj/actor_3_update.rel
                                          [ actor_3_update ]
C:/Users/user/AppData/Local/Temp/_gbsbuild/obj/actor_31_update.rel
                                          [ actor_31_update ]
C:/Users/user/AppData/Local/Temp/_gbsbuild/obj/actor_33_interact.rel
                                          [ actor_33_interact ]
C:/Users/user/AppData/Local/Temp/_gbsbuild/obj/actor_37_interact.rel
                                          [ actor_37_interact ]
C:/Users/user/AppData/Local/Temp/_gbsbuild/obj/actor_38_interact.rel
                                          [ actor_38_interact ]
C:/Users/user/AppData/Local/Temp/_gbsbuild/obj/actor_39_interact.rel
                                          [ actor_39_interact ]
C:/Users/user/AppData/Local/Temp/_gbsbuild/obj/actor_39_update.rel
                                          [ actor_39_update ]
C:/Users/user/AppData/Local/Temp/_gbsbuild/obj/actor_4_interact.rel
                                          [ actor_4_interact ]
C:/Users/user/AppData/Local/Temp/_gbsbuild/obj/actor_4_update.rel
                                          [ actor_4_update ]
C:/Users/user/AppData/Local/Temp/_gbsbuild/obj/actor_40_interact.rel
                                          [ actor_40_interact ]
C:/Users/user/AppData/Local/Temp/_gbsbuild/obj/actor_41_interact.rel
                                          [ actor_41_interact ]
C:/Users/user/AppData/Local/Temp/_gbsbuild/obj/actor_42_interact.rel
                                          [ actor_42_interact ]
C:/Users/user/AppData/Local/Temp/_gbsbuild/obj/actor_43_interact.rel
                                          [ actor_43_interact ]
C:/Users/user/AppData/Local/Temp/_gbsbuild/obj/actor_44_interact.rel
                                          [ actor_44_interact ]
C:/Users/user/AppData/Local/Temp/_gbsbuild/obj/actor_45_interact.rel
                                          [ actor_45_interact ]
C:/Users/user/AppData/Local/Temp/_gbsbuild/obj/actor_46_interact.rel
                                          [ actor_46_interact ]
C:/Users/user/AppData/Local/Temp/_gbsbuild/obj/actor_47_interact.rel
                                          [ actor_47_interact ]
C:/Users/user/AppData/Local/Temp/_gbsbuild/obj/actor_48_interact.rel
                                          [ actor_48_interact ]
C:/Users/user/AppData/Local/Temp/_gbsbuild/obj/actor_48_update.rel
                                          [ actor_48_update ]
C:/Users/user/AppData/Local/Temp/_gbsbuild/obj/actor_49_interact.rel
                                          [ actor_49_interact ]
C:/Users/user/AppData/Local/Temp/_gbsbuild/obj/actor_49_update.rel
                                          [ actor_49_update ]
C:/Users/user/AppData/Local/Temp/_gbsbuild/obj/actor_5_interact.rel
                                          [ actor_5_interact ]
C:/Users/user/AppData/Local/Temp/_gbsbuild/obj/actor_5_update.rel
                                          [ actor_5_update ]
C:/Users/user/AppData/Local/Temp/_gbsbuild/obj/actor_50_interact.rel
                                          [ actor_50_interact ]
C:/Users/user/AppData/Local/Temp/_gbsbuild/obj/actor_51_interact.rel
                                          [ actor_51_interact ]
C:/Users/user/AppData/Local/Temp/_gbsbuild/obj/actor_52_interact.rel
                                          [ actor_52_interact ]
C:/Users/user/AppData/Local/Temp/_gbsbuild/obj/actor_53_interact.rel
                                          [ actor_53_interact ]
C:/Users/user/AppData/Local/Temp/_gbsbuild/obj/actor_53_update.rel
                                          [ actor_53_update ]
C:/Users/user/AppData/Local/Temp/_gbsbuild/obj/actor_54_interact.rel
                                          [ actor_54_interact ]
C:/Users/user/AppData/Local/Temp/_gbsbuild/obj/actor_54_update.rel
                                          [ actor_54_update ]
C:/Users/user/AppData/Local/Temp/_gbsbuild/obj/actor_55_interact.rel
                                          [ actor_55_interact ]
C:/Users/user/AppData/Local/Temp/_gbsbuild/obj/actor_56_interact.rel
                                          [ actor_56_interact ]
C:/Users/user/AppData/Local/Temp/_gbsbuild/obj/actor_57_interact.rel
                                          [ actor_57_interact ]
C:/Users/user/AppData/Local/Temp/_gbsbuild/obj/actor_57_update.rel
                                          [ actor_57_update ]
C:/Users/user/AppData/Local/Temp/_gbsbuild/obj/actor_58_interact.rel
                                          [ actor_58_interact ]
C:/Users/user/AppData/Local/Temp/_gbsbuild/obj/actor_59_interact.rel
                                          [ actor_59_interact ]
C:/Users/user/AppData/Local/Temp/_gbsbuild/obj/actor_6_interact.rel
                                          [ actor_6_interact ]
C:/Users/user/AppData/Local/Temp/_gbsbuild/obj/actor_6_update.rel
                                          [ actor_6_update ]
C:/Users/user/AppData/Local/Temp/_gbsbuild/obj/actor_60_interact.rel
                                          [ actor_60_interact ]
C:/Users/user/AppData/Local/Temp/_gbsbuild/obj/actor_61_update.rel
                                          [ actor_61_update ]
C:/Users/user/AppData/Local/Temp/_gbsbuild/obj/actor_62_interact.rel
                                          [ actor_62_interact ]
C:/Users/user/AppData/Local/Temp/_gbsbuild/obj/actor_63_interact.rel
                                          [ actor_63_interact ]
C:/Users/user/AppData/Local/Temp/_gbsbuild/obj/actor_64_interact.rel
                                          [ actor_64_interact ]
C:/Users/user/AppData/Local/Temp/_gbsbuild/obj/actor_64_update.rel
                                          [ actor_64_update ]
C:/Users/user/AppData/Local/Temp/_gbsbuild/obj/actor_65_interact.rel
                                          [ actor_65_interact ]
C:/Users/user/AppData/Local/Temp/_gbsbuild/obj/actor_66_interact.rel
                                          [ actor_66_interact ]
C:/Users/user/AppData/Local/Temp/_gbsbuild/obj/actor_67_interact.rel
                                          [ actor_67_interact ]
C:/Users/user/AppData/Local/Temp/_gbsbuild/obj/actor_68_interact.rel
                                          [ actor_68_interact ]
C:/Users/user/AppData/Local/Temp/_gbsbuild/obj/actor_69_interact.rel
                                          [ actor_69_interact ]
C:/Users/user/AppData/Local/Temp/_gbsbuild/obj/actor_7_interact.rel
                                          [ actor_7_interact ]
C:/Users/user/AppData/Local/Temp/_gbsbuild/obj/actor_7_update.rel
                                          [ actor_7_update ]
C:/Users/user/AppData/Local/Temp/_gbsbuild/obj/actor_70_interact.rel
                                          [ actor_70_interact ]
C:/Users/user/AppData/Local/Temp/_gbsbuild/obj/actor_71_interact.rel
                                          [ actor_71_interact ]
C:/Users/user/AppData/Local/Temp/_gbsbuild/obj/actor_72_interact.rel
                                          [ actor_72_interact ]
C:/Users/user/AppData/Local/Temp/_gbsbuild/obj/actor_72_update.rel
                                          [ actor_72_update ]
C:/Users/user/AppData/Local/Temp/_gbsbuild/obj/actor_73_interact.rel
                                          [ actor_73_interact ]
C:/Users/user/AppData/Local/Temp/_gbsbuild/obj/actor_73_update.rel
                                          [ actor_73_update ]
C:/Users/user/AppData/Local/Temp/_gbsbuild/obj/actor_74_interact.rel
                                          [ actor_74_interact ]
C:/Users/user/AppData/Local/Temp/_gbsbuild/obj/actor_76_interact.rel
                                          [ actor_76_interact ]
C:/Users/user/AppData/Local/Temp/_gbsbuild/obj/actor_76_update.rel
                                          [ actor_76_update ]
C:/Users/user/AppData/Local/Temp/_gbsbuild/obj/actor_77_interact.rel
                                          [ actor_77_interact ]
C:/Users/user/AppData/Local/Temp/_gbsbuild/obj/actor_77_update.rel
                                          [ actor_77_update ]
C:/Users/user/AppData/Local/Temp/_gbsbuild/obj/actor_78_interact.rel
                                          [ actor_78_interact ]
C:/Users/user/AppData/Local/Temp/_gbsbuild/obj/actor_79_interact.rel
                                          [ actor_79_interact ]
C:/Users/user/AppData/Local/Temp/_gbsbuild/obj/actor_8_interact.rel
                                          [ actor_8_interact ]
C:/Users/user/AppData/Local/Temp/_gbsbuild/obj/actor_8_update.rel
                                          [ actor_8_update ]
C:/Users/user/AppData/Local/Temp/_gbsbuild/obj/actor_80_interact.rel
                                          [ actor_80_interact ]
C:/Users/user/AppData/Local/Temp/_gbsbuild/obj/actor_81_interact.rel
                                          [ actor_81_interact ]
C:/Users/user/AppData/Local/Temp/_gbsbuild/obj/actor_82_interact.rel
                                          [ actor_82_interact ]
C:/Users/user/AppData/Local/Temp/_gbsbuild/obj/actor_82_update.rel
                                          [ actor_82_update ]
C:/Users/user/AppData/Local/Temp/_gbsbuild/obj/actor_83_interact.rel
                                          [ actor_83_interact ]
C:/Users/user/AppData/Local/Temp/_gbsbuild/obj/actor_83_update.rel
                                          [ actor_83_update ]
C:/Users/user/AppData/Local/Temp/_gbsbuild/obj/actor_86_interact.rel
                                          [ actor_86_interact ]
C:/Users/user/AppData/Local/Temp/_gbsbuild/obj/actor_9_interact.rel
                                          [ actor_9_interact ]
C:/Users/user/AppData/Local/Temp/_gbsbuild/obj/actor_9_update.rel
                                          [ actor_9_update ]
C:/Users/user/AppData/Local/Temp/_gbsbuild/obj/actor_91_interact.rel
                                          [ actor_91_interact ]
C:/Users/user/AppData/Local/Temp/_gbsbuild/obj/actor_92_interact.rel
                                          [ actor_92_interact ]
C:/Users/user/AppData/Local/Temp/_gbsbuild/obj/actor_93_interact.rel
                                          [ actor_93_interact ]
C:/Users/user/AppData/Local/Temp/_gbsbuild/obj/actor_94_interact.rel
                                          [ actor_94_interact ]
C:/Users/user/AppData/Local/Temp/_gbsbuild/obj/actor_angry_guy_interact.rel
                                          [ actor_angry_guy_interact ]
C:/Users/user/AppData/Local/Temp/_gbsbuild/obj/actor_cat_interact.rel
                                          [ actor_cat_interact ]
C:/Users/user/AppData/Local/Temp/_gbsbuild/obj/actor_chest_interact.rel
                                          [ actor_chest_interact ]
C:/Users/user/AppData/Local/Temp/_gbsbuild/obj/actor_elephant_interact.rel
                                          [ actor_elephant_interact ]
C:/Users/user/AppData/Local/Temp/_gbsbuild/obj/actor_gardener_interact.rel
                                          [ actor_gardener_interact ]
C:/Users/user/AppData/Local/Temp/_gbsbuild/obj/actor_hider_interact.rel
                                          [ actor_hider_interact ]
C:/Users/user/AppData/Local/Temp/_gbsbuild/obj/actor_ice_block_interact.rel
                                          [ actor_ice_block_interact ]
C:/Users/user/AppData/Local/Temp/_gbsbuild/obj/actor_machine_0_interact.rel
                                          [ actor_machine_0_interact ]
C:/Users/user/AppData/Local/Temp/_gbsbuild/obj/actor_machine_1_interact.rel
                                          [ actor_machine_1_interact ]
C:/Users/user/AppData/Local/Temp/_gbsbuild/obj/actor_machine_2_interact.rel
                                          [ actor_machine_2_interact ]
C:/Users/user/AppData/Local/Temp/_gbsbuild/obj/actor_machine_interact.rel
                                          [ actor_machine_interact ]
C:/Users/user/AppData/Local/Temp/_gbsbuild/obj/actor_oblivious_guy_interact.rel
                                          [ actor_oblivious_guy_interact ]
C:/Users/user/AppData/Local/Temp/_gbsbuild/obj/actor_pet_owner_interact.rel
                                          [ actor_pet_owner_interact ]
C:/Users/user/AppData/Local/Temp/_gbsbuild/obj/actor_pet_owner_update.rel
                                          [ actor_pet_owner_update ]
C:/Users/user/AppData/Local/Temp/_gbsbuild/obj/actor_radio_guy_interact.rel
                                          [ actor_radio_guy_interact ]
C:/Users/user/AppData/Local/Temp/_gbsbuild/obj/actor_radio_interact.rel
                                          [ actor_radio_interact ]
C:/Users/user/AppData/Local/Temp/_gbsbuild/obj/actor_rock_1_interact.rel
                                          [ actor_rock_1_interact ]
C:/Users/user/AppData/Local/Temp/_gbsbuild/obj/actor_rock_2_interact.rel
                                          [ actor_rock_2_interact ]
C:/Users/user/AppData/Local/Temp/_gbsbuild/obj/actor_rock_3_interact.rel
                                          [ actor_rock_3_interact ]
C:/Users/user/AppData/Local/Temp/_gbsbuild/obj/actor_rock_interact.rel
                                          [ actor_rock_interact ]
C:/Users/user/AppData/Local/Temp/_gbsbuild/obj/actor_sage_interact.rel
                                          [ actor_sage_interact ]
C:/Users/user/AppData/Local/Temp/_gbsbuild/obj/actor_save_point_0_interact.rel
                                          [ actor_save_point_0_interact ]
C:/Users/user/AppData/Local/Temp/_gbsbuild/obj/actor_save_point_1_interact.rel
                                          [ actor_save_point_1_interact ]
C:/Users/user/AppData/Local/Temp/_gbsbuild/obj/actor_save_point_interact.rel
                                          [ actor_save_point_interact ]
C:/Users/user/AppData/Local/Temp/_gbsbuild/obj/actor_scientist_interact.rel
                                          [ actor_scientist_interact ]
C:/Users/user/AppData/Local/Temp/_gbsbuild/obj/actor_scientist_update.rel
                                          [ actor_scientist_update ]
C:/Users/user/AppData/Local/Temp/_gbsbuild/obj/actor_sign_post_0_interact.rel
                                          [ actor_sign_post_0_interact ]
C:/Users/user/AppData/Local/Temp/_gbsbuild/obj/actor_sign_post_2_interact.rel
                                          [ actor_sign_post_2_interact ]
C:/Users/user/AppData/Local/Temp/_gbsbuild/obj/actor_sign_post_4_interact.rel
                                          [ actor_sign_post_4_interact ]
C:/Users/user/AppData/Local/Temp/_gbsbuild/obj/actor_sign_post_interact.rel
                                          [ actor_sign_post_interact ]
C:/Users/user/AppData/Local/Temp/_gbsbuild/obj/actor_space_dog_interact.rel
                                          [ actor_space_dog_interact ]
C:/Users/user/AppData/Local/Temp/_gbsbuild/obj/actor_turnip_1_interact.rel
                                          [ actor_turnip_1_interact ]
C:/Users/user/AppData/Local/Temp/_gbsbuild/obj/actor_turnip_1_update.rel
                                          [ actor_turnip_1_update ]
C:/Users/user/AppData/Local/Temp/_gbsbuild/obj/actor_turnip_2_interact.rel
                                          [ actor_turnip_2_interact ]
C:/Users/user/AppData/Local/Temp/_gbsbuild/obj/actor_turnip_2_update.rel
                                          [ actor_turnip_2_update ]
C:/Users/user/AppData/Local/Temp/_gbsbuild/obj/actor_turnip_3_interact.rel
                                          [ actor_turnip_3_interact ]
C:/Users/user/AppData/Local/Temp/_gbsbuild/obj/actor_turnip_3_update.rel
                                          [ actor_turnip_3_update ]
C:/Users/user/AppData/Local/Temp/_gbsbuild/obj/avatar_font_0.rel
                                          [ avatar_font_0 ]
C:/Users/user/AppData/Local/Temp/_gbsbuild/obj/bg_black_tilemap.rel
                                          [ bg_black_tilemap ]
C:/Users/user/AppData/Local/Temp/_gbsbuild/obj/bg_black_tileset.rel
                                          [ bg_black_tileset ]
C:/Users/user/AppData/Local/Temp/_gbsbuild/obj/bg_black.rel
                                          [ bg_black ]
C:/Users/user/AppData/Local/Temp/_gbsbuild/obj/bg_cave_tilemap_attr.rel
                                          [ bg_cave_tilemap_attr ]
C:/Users/user/AppData/Local/Temp/_gbsbuild/obj/bg_cave_tilemap.rel
                                          [ bg_cave_tilemap ]
C:/Users/user/AppData/Local/Temp/_gbsbuild/obj/bg_cave_tileset.rel
                                          [ bg_cave_tileset ]
C:/Users/user/AppData/Local/Temp/_gbsbuild/obj/bg_cave.rel
                                          [ bg_cave ]
C:/Users/user/AppData/Local/Temp/_gbsbuild/obj/bg_city_hall_proto_tilemap_attr.rel
                                          [ bg_city_hall_proto_tilemap_attr ]
C:/Users/user/AppData/Local/Temp/_gbsbuild/obj/bg_city_hall_proto_tilemap.rel
                                          [ bg_city_hall_proto_tilemap ]
C:/Users/user/AppData/Local/Temp/_gbsbuild/obj/bg_city_hall_proto_tileset.rel
                                          [ bg_city_hall_proto_tileset ]
C:/Users/user/AppData/Local/Temp/_gbsbuild/obj/bg_city_hall_proto.rel
                                          [ bg_city_hall_proto ]
C:/Users/user/AppData/Local/Temp/_gbsbuild/obj/bg_hidden_cave_tilemap_attr.rel
                                          [ bg_hidden_cave_tilemap_attr ]
C:/Users/user/AppData/Local/Temp/_gbsbuild/obj/bg_hidden_cave_tilemap.rel
                                          [ bg_hidden_cave_tilemap ]
C:/Users/user/AppData/Local/Temp/_gbsbuild/obj/bg_hidden_cave_tileset.rel
                                          [ bg_hidden_cave_tileset ]
C:/Users/user/AppData/Local/Temp/_gbsbuild/obj/bg_hidden_cave.rel
                                          [ bg_hidden_cave ]
C:/Users/user/AppData/Local/Temp/_gbsbuild/obj/bg_highway_tilemap.rel
                                          [ bg_highway_tilemap ]
C:/Users/user/AppData/Local/Temp/_gbsbuild/obj/bg_highway_tileset.rel
                                          [ bg_highway_tileset ]
C:/Users/user/AppData/Local/Temp/_gbsbuild/obj/bg_highway.rel
                                          [ bg_highway ]
C:/Users/user/AppData/Local/Temp/_gbsbuild/obj/bg_hotelstreet_tilemap_attr.rel
                                          [ bg_hotelstreet_tilemap_attr ]
C:/Users/user/AppData/Local/Temp/_gbsbuild/obj/bg_hotelstreet_tilemap.rel
                                          [ bg_hotelstreet_tilemap ]
C:/Users/user/AppData/Local/Temp/_gbsbuild/obj/bg_hotelstreet_tileset.rel
                                          [ bg_hotelstreet_tileset ]
C:/Users/user/AppData/Local/Temp/_gbsbuild/obj/bg_hotelstreet.rel
                                          [ bg_hotelstreet ]
C:/Users/user/AppData/Local/Temp/_gbsbuild/obj/bg_house_tilemap_attr.rel
                                          [ bg_house_tilemap_attr ]
C:/Users/user/AppData/Local/Temp/_gbsbuild/obj/bg_house_tilemap.rel
                                          [ bg_house_tilemap ]
C:/Users/user/AppData/Local/Temp/_gbsbuild/obj/bg_house_tileset.rel
                                          [ bg_house_tileset ]
C:/Users/user/AppData/Local/Temp/_gbsbuild/obj/bg_house.rel
                                          [ bg_house ]
C:/Users/user/AppData/Local/Temp/_gbsbuild/obj/bg_house2_tilemap.rel
                                          [ bg_house2_tilemap ]
C:/Users/user/AppData/Local/Temp/_gbsbuild/obj/bg_house2_tileset.rel
                                          [ bg_house2_tileset ]
C:/Users/user/AppData/Local/Temp/_gbsbuild/obj/bg_house2.rel
                                          [ bg_house2 ]
C:/Users/user/AppData/Local/Temp/_gbsbuild/obj/bg_insidestation2_tilemap_attr.rel
                                          [ bg_insidestation2_tilemap_attr ]
C:/Users/user/AppData/Local/Temp/_gbsbuild/obj/bg_insidestation2_tilemap.rel
                                          [ bg_insidestation2_tilemap ]
C:/Users/user/AppData/Local/Temp/_gbsbuild/obj/bg_insidestation2_tileset.rel
                                          [ bg_insidestation2_tileset ]
C:/Users/user/AppData/Local/Temp/_gbsbuild/obj/bg_insidestation2.rel
                                          [ bg_insidestation2 ]
C:/Users/user/AppData/Local/Temp/_gbsbuild/obj/bg_launch_site_tilemap_attr.rel
                                          [ bg_launch_site_tilemap_attr ]
C:/Users/user/AppData/Local/Temp/_gbsbuild/obj/bg_launch_site_tilemap.rel
                                          [ bg_launch_site_tilemap ]
C:/Users/user/AppData/Local/Temp/_gbsbuild/obj/bg_launch_site_tileset.rel
                                          [ bg_launch_site_tileset ]
C:/Users/user/AppData/Local/Temp/_gbsbuild/obj/bg_launch_site.rel
                                          [ bg_launch_site ]
C:/Users/user/AppData/Local/Temp/_gbsbuild/obj/bg_leaving_earth_tilemap_attr.rel
                                          [ bg_leaving_earth_tilemap_attr ]
C:/Users/user/AppData/Local/Temp/_gbsbuild/obj/bg_leaving_earth_tilemap.rel
                                          [ bg_leaving_earth_tilemap ]
C:/Users/user/AppData/Local/Temp/_gbsbuild/obj/bg_leaving_earth_tileset.rel
                                          [ bg_leaving_earth_tileset ]
C:/Users/user/AppData/Local/Temp/_gbsbuild/obj/bg_leaving_earth.rel
                                          [ bg_leaving_earth ]
C:/Users/user/AppData/Local/Temp/_gbsbuild/obj/bg_logo_tilemap.rel
                                          [ bg_logo_tilemap ]
C:/Users/user/AppData/Local/Temp/_gbsbuild/obj/bg_logo_tileset.rel
                                          [ bg_logo_tileset ]
C:/Users/user/AppData/Local/Temp/_gbsbuild/obj/bg_logo.rel
                                          [ bg_logo ]
C:/Users/user/AppData/Local/Temp/_gbsbuild/obj/bg_menu_page1_tilemap.rel
                                          [ bg_menu_page1_tilemap ]
C:/Users/user/AppData/Local/Temp/_gbsbuild/obj/bg_menu_page1_tileset.rel
                                          [ bg_menu_page1_tileset ]
C:/Users/user/AppData/Local/Temp/_gbsbuild/obj/bg_menu_page1.rel
                                          [ bg_menu_page1 ]
C:/Users/user/AppData/Local/Temp/_gbsbuild/obj/bg_menu_page2_tilemap.rel
                                          [ bg_menu_page2_tilemap ]
C:/Users/user/AppData/Local/Temp/_gbsbuild/obj/bg_menu_page2_tileset.rel
                                          [ bg_menu_page2_tileset ]
C:/Users/user/AppData/Local/Temp/_gbsbuild/obj/bg_menu_page2.rel
                                          [ bg_menu_page2 ]
C:/Users/user/AppData/Local/Temp/_gbsbuild/obj/bg_menu_tilemap.rel
                                          [ bg_menu_tilemap ]
C:/Users/user/AppData/Local/Temp/_gbsbuild/obj/bg_menu_tileset.rel
                                          [ bg_menu_tileset ]
C:/Users/user/AppData/Local/Temp/_gbsbuild/obj/bg_menu.rel
                                          [ bg_menu ]
C:/Users/user/AppData/Local/Temp/_gbsbuild/obj/bg_outside_tilemap_attr.rel
                                          [ bg_outside_tilemap_attr ]
C:/Users/user/AppData/Local/Temp/_gbsbuild/obj/bg_outside_tilemap.rel
                                          [ bg_outside_tilemap ]
C:/Users/user/AppData/Local/Temp/_gbsbuild/obj/bg_outside_tileset.rel
                                          [ bg_outside_tileset ]
C:/Users/user/AppData/Local/Temp/_gbsbuild/obj/bg_outside.rel
                                          [ bg_outside ]
C:/Users/user/AppData/Local/Temp/_gbsbuild/obj/bg_overworld_pixelnook_indu_tilemap_attr.rel
                                          [ bg_overworld_pixelnook_indu_tile ]
C:/Users/user/AppData/Local/Temp/_gbsbuild/obj/bg_overworld_pixelnook_indu_tilemap.rel
                                          [ bg_overworld_pixelnook_indu_tile ]
C:/Users/user/AppData/Local/Temp/_gbsbuild/obj/bg_overworld_pixelnook_indu_tileset.rel
                                          [ bg_overworld_pixelnook_indu_tile ]
C:/Users/user/AppData/Local/Temp/_gbsbuild/obj/bg_overworld_pixelnook_indu.rel
                                          [ bg_overworld_pixelnook_indu ]
C:/Users/user/AppData/Local/Temp/_gbsbuild/obj/bg_overworld_playground_pix_tilemap_attr.rel
                                          [ bg_overworld_playground_pix_tile ]
C:/Users/user/AppData/Local/Temp/_gbsbuild/obj/bg_overworld_playground_pix_tilemap.rel
                                          [ bg_overworld_playground_pix_tile ]
C:/Users/user/AppData/Local/Temp/_gbsbuild/obj/bg_overworld_playground_pix_tileset.rel
                                          [ bg_overworld_playground_pix_tile ]
C:/Users/user/AppData/Local/Temp/_gbsbuild/obj/bg_overworld_playground_pix.rel
                                          [ bg_overworld_playground_pix ]
C:/Users/user/AppData/Local/Temp/_gbsbuild/obj/bg_parallax_tilemap_attr.rel
                                          [ bg_parallax_tilemap_attr ]
C:/Users/user/AppData/Local/Temp/_gbsbuild/obj/bg_parallax_tilemap.rel
                                          [ bg_parallax_tilemap ]
C:/Users/user/AppData/Local/Temp/_gbsbuild/obj/bg_parallax_tileset.rel
                                          [ bg_parallax_tileset ]
C:/Users/user/AppData/Local/Temp/_gbsbuild/obj/bg_parallax.rel
                                          [ bg_parallax ]
C:/Users/user/AppData/Local/Temp/_gbsbuild/obj/bg_placeholder1_tilemap_attr.rel
                                          [ bg_placeholder1_tilemap_attr ]
C:/Users/user/AppData/Local/Temp/_gbsbuild/obj/bg_placeholder1_tilemap.rel
                                          [ bg_placeholder1_tilemap ]
C:/Users/user/AppData/Local/Temp/_gbsbuild/obj/bg_placeholder1_tileset.rel
                                          [ bg_placeholder1_tileset ]
C:/Users/user/AppData/Local/Temp/_gbsbuild/obj/bg_placeholder1.rel
                                          [ bg_placeholder1 ]
C:/Users/user/AppData/Local/Temp/_gbsbuild/obj/bg_platform_path_tilemap_attr.rel
                                          [ bg_platform_path_tilemap_attr ]
C:/Users/user/AppData/Local/Temp/_gbsbuild/obj/bg_platform_path_tilemap.rel
                                          [ bg_platform_path_tilemap ]
C:/Users/user/AppData/Local/Temp/_gbsbuild/obj/bg_platform_path_tileset.rel
                                          [ bg_platform_path_tileset ]
C:/Users/user/AppData/Local/Temp/_gbsbuild/obj/bg_platform_path.rel
                                          [ bg_platform_path ]
C:/Users/user/AppData/Local/Temp/_gbsbuild/obj/bg_police_station_tilemap_attr.rel
                                          [ bg_police_station_tilemap_attr ]
C:/Users/user/AppData/Local/Temp/_gbsbuild/obj/bg_police_station_tilemap.rel
                                          [ bg_police_station_tilemap ]
C:/Users/user/AppData/Local/Temp/_gbsbuild/obj/bg_police_station_tileset.rel
                                          [ bg_police_station_tileset ]
C:/Users/user/AppData/Local/Temp/_gbsbuild/obj/bg_police_station.rel
                                          [ bg_police_station ]
C:/Users/user/AppData/Local/Temp/_gbsbuild/obj/bg_restr_tilemap_attr.rel
                                          [ bg_restr_tilemap_attr ]
C:/Users/user/AppData/Local/Temp/_gbsbuild/obj/bg_restr_tilemap.rel
                                          [ bg_restr_tilemap ]
C:/Users/user/AppData/Local/Temp/_gbsbuild/obj/bg_restr_tileset.rel
                                          [ bg_restr_tileset ]
C:/Users/user/AppData/Local/Temp/_gbsbuild/obj/bg_restr.rel
                                          [ bg_restr ]
C:/Users/user/AppData/Local/Temp/_gbsbuild/obj/bg_room_tilemap_attr.rel
                                          [ bg_room_tilemap_attr ]
C:/Users/user/AppData/Local/Temp/_gbsbuild/obj/bg_room_tilemap.rel
                                          [ bg_room_tilemap ]
C:/Users/user/AppData/Local/Temp/_gbsbuild/obj/bg_room_tileset.rel
                                          [ bg_room_tileset ]
C:/Users/user/AppData/Local/Temp/_gbsbuild/obj/bg_room.rel
                                          [ bg_room ]
C:/Users/user/AppData/Local/Temp/_gbsbuild/obj/bg_sample_town_tilemap_attr.rel
                                          [ bg_sample_town_tilemap_attr ]
C:/Users/user/AppData/Local/Temp/_gbsbuild/obj/bg_sample_town_tilemap.rel
                                          [ bg_sample_town_tilemap ]
C:/Users/user/AppData/Local/Temp/_gbsbuild/obj/bg_sample_town_tileset.rel
                                          [ bg_sample_town_tileset ]
C:/Users/user/AppData/Local/Temp/_gbsbuild/obj/bg_sample_town.rel
                                          [ bg_sample_town ]
C:/Users/user/AppData/Local/Temp/_gbsbuild/obj/bg_stars_tilemap.rel
                                          [ bg_stars_tilemap ]
C:/Users/user/AppData/Local/Temp/_gbsbuild/obj/bg_stars_tileset.rel
                                          [ bg_stars_tileset ]
C:/Users/user/AppData/Local/Temp/_gbsbuild/obj/bg_stars.rel
                                          [ bg_stars ]
C:/Users/user/AppData/Local/Temp/_gbsbuild/obj/bg_titlescreen_tilemap_attr.rel
                                          [ bg_titlescreen_tilemap_attr ]
C:/Users/user/AppData/Local/Temp/_gbsbuild/obj/bg_titlescreen_tilemap.rel
                                          [ bg_titlescreen_tilemap ]
C:/Users/user/AppData/Local/Temp/_gbsbuild/obj/bg_titlescreen_tileset.rel
                                          [ bg_titlescreen_tileset ]
C:/Users/user/AppData/Local/Temp/_gbsbuild/obj/bg_titlescreen.rel
                                          [ bg_titlescreen ]
C:/Users/user/AppData/Local/Temp/_gbsbuild/obj/bg_town_tilemap_attr.rel
                                          [ bg_town_tilemap_attr ]
C:/Users/user/AppData/Local/Temp/_gbsbuild/obj/bg_town_tilemap.rel
                                          [ bg_town_tilemap ]
C:/Users/user/AppData/Local/Temp/_gbsbuild/obj/bg_town_tileset.rel
                                          [ bg_town_tileset ]
C:/Users/user/AppData/Local/Temp/_gbsbuild/obj/bg_town.rel
                                          [ bg_town ]
C:/Users/user/AppData/Local/Temp/_gbsbuild/obj/bg_underground_tilemap_attr.rel
                                          [ bg_underground_tilemap_attr ]
C:/Users/user/AppData/Local/Temp/_gbsbuild/obj/bg_underground_tilemap.rel
                                          [ bg_underground_tilemap ]
C:/Users/user/AppData/Local/Temp/_gbsbuild/obj/bg_underground_tileset.rel
                                          [ bg_underground_tileset ]
C:/Users/user/AppData/Local/Temp/_gbsbuild/obj/bg_underground.rel
                                          [ bg_underground ]
C:/Users/user/AppData/Local/Temp/_gbsbuild/obj/cursor_image.rel
                                          [ cursor_image ]
C:/Users/user/AppData/Local/Temp/_gbsbuild/obj/emote_anger.rel
                                          [ emote_anger ]
C:/Users/user/AppData/Local/Temp/_gbsbuild/obj/emote_love.rel
                                          [ emote_love ]
C:/Users/user/AppData/Local/Temp/_gbsbuild/obj/emote_music.rel
                                          [ emote_music ]
C:/Users/user/AppData/Local/Temp/_gbsbuild/obj/emote_pause.rel
                                          [ emote_pause ]
C:/Users/user/AppData/Local/Temp/_gbsbuild/obj/emote_shock.rel
                                          [ emote_shock ]
C:/Users/user/AppData/Local/Temp/_gbsbuild/obj/emote_sweat.rel
                                          [ emote_sweat ]
C:/Users/user/AppData/Local/Temp/_gbsbuild/obj/font_gbs_variable_width.rel
                                          [ font_gbs_variable_width ]
C:/Users/user/AppData/Local/Temp/_gbsbuild/obj/frame_image.rel
                                          [ frame_image ]
C:/Users/user/AppData/Local/Temp/_gbsbuild/obj/game_signature.rel
                                          [ game_signature ]
C:/Users/user/AppData/Local/Temp/_gbsbuild/obj/song_drum_example_Data.rel
                                          [ song_drum_example_Data ]
C:/Users/user/AppData/Local/Temp/_gbsbuild/obj/song_echo_example_Data.rel
                                          [ song_echo_example_Data ]
C:/Users/user/AppData/Local/Temp/_gbsbuild/obj/song_rulz_battletheme_0_Data.rel
                                          [ song_rulz_battletheme_0_Data ]
C:/Users/user/AppData/Local/Temp/_gbsbuild/obj/song_rulz_fastpacespeedrace_0_Data.rel
                                          [ song_rulz_fastpacespeedrace_0_Da ]
C:/Users/user/AppData/Local/Temp/_gbsbuild/obj/song_rulz_gonaspace_0_Data.rel
                                          [ song_rulz_gonaspace_0_Data ]
C:/Users/user/AppData/Local/Temp/_gbsbuild/obj/song_rulz_intro_0_Data.rel
                                          [ song_rulz_intro_0_Data ]
C:/Users/user/AppData/Local/Temp/_gbsbuild/obj/song_rulz_lightmood_0_Data.rel
                                          [ song_rulz_lightmood_0_Data ]
C:/Users/user/AppData/Local/Temp/_gbsbuild/obj/song_rulz_outside_0_Data.rel
                                          [ song_rulz_outside_0_Data ]
C:/Users/user/AppData/Local/Temp/_gbsbuild/obj/song_rulz_pause_underground_0_Data.rel
                                          [ song_rulz_pause_underground_0_Da ]
C:/Users/user/AppData/Local/Temp/_gbsbuild/obj/song_rulz_spaceemergency_0_Data.rel
                                          [ song_rulz_spaceemergency_0_Data ]
C:/Users/user/AppData/Local/Temp/_gbsbuild/obj/song_rulz_undergroundcave_0_Data.rel
                                          [ song_rulz_undergroundcave_0_Data ]
C:/Users/user/AppData/Local/Temp/_gbsbuild/obj/palette_0.rel
                                          [ palette_0 ]
C:/Users/user/AppData/Local/Temp/_gbsbuild/obj/palette_1.rel
                                          [ palette_1 ]
C:/Users/user/AppData/Local/Temp/_gbsbuild/obj/palette_10.rel
                                          [ palette_10 ]
C:/Users/user/AppData/Local/Temp/_gbsbuild/obj/palette_11.rel
                                          [ palette_11 ]
C:/Users/user/AppData/Local/Temp/_gbsbuild/obj/palette_12.rel
                                          [ palette_12 ]
C:/Users/user/AppData/Local/Temp/_gbsbuild/obj/palette_13.rel
                                          [ palette_13 ]
C:/Users/user/AppData/Local/Temp/_gbsbuild/obj/palette_14.rel
                                          [ palette_14 ]
C:/Users/user/AppData/Local/Temp/_gbsbuild/obj/palette_15.rel
                                          [ palette_15 ]
C:/Users/user/AppData/Local/Temp/_gbsbuild/obj/palette_16.rel
                                          [ palette_16 ]
C:/Users/user/AppData/Local/Temp/_gbsbuild/obj/palette_17.rel
                                          [ palette_17 ]
C:/Users/user/AppData/Local/Temp/_gbsbuild/obj/palette_18.rel
                                          [ palette_18 ]
C:/Users/user/AppData/Local/Temp/_gbsbuild/obj/palette_19.rel
                                          [ palette_19 ]
C:/Users/user/AppData/Local/Temp/_gbsbuild/obj/palette_2.rel
                                          [ palette_2 ]
C:/Users/user/AppData/Local/Temp/_gbsbuild/obj/palette_20.rel
                                          [ palette_20 ]
C:/Users/user/AppData/Local/Temp/_gbsbuild/obj/palette_21.rel
                                          [ palette_21 ]
C:/Users/user/AppData/Local/Temp/_gbsbuild/obj/palette_3.rel
                                          [ palette_3 ]
C:/Users/user/AppData/Local/Temp/_gbsbuild/obj/palette_4.rel
                                          [ palette_4 ]
C:/Users/user/AppData/Local/Temp/_gbsbuild/obj/palette_5.rel
                                          [ palette_5 ]
C:/Users/user/AppData/Local/Temp/_gbsbuild/obj/palette_6.rel
                                          [ palette_6 ]
C:/Users/user/AppData/Local/Temp/_gbsbuild/obj/palette_7.rel
                                          [ palette_7 ]
C:/Users/user/AppData/Local/Temp/_gbsbuild/obj/palette_8.rel
                                          [ palette_8 ]
C:/Users/user/AppData/Local/Temp/_gbsbuild/obj/palette_9.rel
                                          [ palette_9 ]
C:/Users/user/AppData/Local/Temp/_gbsbuild/obj/scene_17_actors.rel
                                          [ scene_17_actors ]
C:/Users/user/AppData/Local/Temp/_gbsbuild/obj/scene_17_collisions.rel
                                          [ scene_17_collisions ]
C:/Users/user/AppData/Local/Temp/_gbsbuild/obj/scene_17_init.rel
                                          [ scene_17_init ]
C:/Users/user/AppData/Local/Temp/_gbsbuild/obj/scene_17_sprites.rel
                                          [ scene_17_sprites ]
C:/Users/user/AppData/Local/Temp/_gbsbuild/obj/scene_17_triggers.rel
                                          [ scene_17_triggers ]
C:/Users/user/AppData/Local/Temp/_gbsbuild/obj/scene_17.rel
                                          [ scene_17 ]
C:/Users/user/AppData/Local/Temp/_gbsbuild/obj/scene_20_actors.rel
                                          [ scene_20_actors ]
C:/Users/user/AppData/Local/Temp/_gbsbuild/obj/scene_20_collisions.rel
                                          [ scene_20_collisions ]
C:/Users/user/AppData/Local/Temp/_gbsbuild/obj/scene_20_init.rel
                                          [ scene_20_init ]
C:/Users/user/AppData/Local/Temp/_gbsbuild/obj/scene_20_sprites.rel
                                          [ scene_20_sprites ]
C:/Users/user/AppData/Local/Temp/_gbsbuild/obj/scene_20_triggers.rel
                                          [ scene_20_triggers ]
C:/Users/user/AppData/Local/Temp/_gbsbuild/obj/scene_20.rel
                                          [ scene_20 ]
C:/Users/user/AppData/Local/Temp/_gbsbuild/obj/scene_21_actors.rel
                                          [ scene_21_actors ]
C:/Users/user/AppData/Local/Temp/_gbsbuild/obj/scene_21_collisions.rel
                                          [ scene_21_collisions ]
C:/Users/user/AppData/Local/Temp/_gbsbuild/obj/scene_21_init.rel
                                          [ scene_21_init ]
C:/Users/user/AppData/Local/Temp/_gbsbuild/obj/scene_21_sprites.rel
                                          [ scene_21_sprites ]
C:/Users/user/AppData/Local/Temp/_gbsbuild/obj/scene_21_triggers.rel
                                          [ scene_21_triggers ]
C:/Users/user/AppData/Local/Temp/_gbsbuild/obj/scene_21.rel
                                          [ scene_21 ]
C:/Users/user/AppData/Local/Temp/_gbsbuild/obj/scene_22_actors.rel
                                          [ scene_22_actors ]
C:/Users/user/AppData/Local/Temp/_gbsbuild/obj/scene_22_collisions.rel
                                          [ scene_22_collisions ]
C:/Users/user/AppData/Local/Temp/_gbsbuild/obj/scene_22_init.rel
                                          [ scene_22_init ]
C:/Users/user/AppData/Local/Temp/_gbsbuild/obj/scene_22_sprites.rel
                                          [ scene_22_sprites ]
C:/Users/user/AppData/Local/Temp/_gbsbuild/obj/scene_22_triggers.rel
                                          [ scene_22_triggers ]
C:/Users/user/AppData/Local/Temp/_gbsbuild/obj/scene_22.rel
                                          [ scene_22 ]
C:/Users/user/AppData/Local/Temp/_gbsbuild/obj/scene_23_actors.rel
                                          [ scene_23_actors ]
C:/Users/user/AppData/Local/Temp/_gbsbuild/obj/scene_23_collisions.rel
                                          [ scene_23_collisions ]
C:/Users/user/AppData/Local/Temp/_gbsbuild/obj/scene_23_init.rel
                                          [ scene_23_init ]
C:/Users/user/AppData/Local/Temp/_gbsbuild/obj/scene_23_sprites.rel
                                          [ scene_23_sprites ]
C:/Users/user/AppData/Local/Temp/_gbsbuild/obj/scene_23_triggers.rel
                                          [ scene_23_triggers ]
C:/Users/user/AppData/Local/Temp/_gbsbuild/obj/scene_23.rel
                                          [ scene_23 ]
C:/Users/user/AppData/Local/Temp/_gbsbuild/obj/scene_24_actors.rel
                                          [ scene_24_actors ]
C:/Users/user/AppData/Local/Temp/_gbsbuild/obj/scene_24_collisions.rel
                                          [ scene_24_collisions ]
C:/Users/user/AppData/Local/Temp/_gbsbuild/obj/scene_24_init.rel
                                          [ scene_24_init ]
C:/Users/user/AppData/Local/Temp/_gbsbuild/obj/scene_24_sprites.rel
                                          [ scene_24_sprites ]
C:/Users/user/AppData/Local/Temp/_gbsbuild/obj/scene_24_triggers.rel
                                          [ scene_24_triggers ]
C:/Users/user/AppData/Local/Temp/_gbsbuild/obj/scene_24.rel
                                          [ scene_24 ]
C:/Users/user/AppData/Local/Temp/_gbsbuild/obj/scene_25_actors.rel
                                          [ scene_25_actors ]
C:/Users/user/AppData/Local/Temp/_gbsbuild/obj/scene_25_collisions.rel
                                          [ scene_25_collisions ]
C:/Users/user/AppData/Local/Temp/_gbsbuild/obj/scene_25_init.rel
                                          [ scene_25_init ]
C:/Users/user/AppData/Local/Temp/_gbsbuild/obj/scene_25_sprites.rel
                                          [ scene_25_sprites ]
C:/Users/user/AppData/Local/Temp/_gbsbuild/obj/scene_25_triggers.rel
                                          [ scene_25_triggers ]
C:/Users/user/AppData/Local/Temp/_gbsbuild/obj/scene_25.rel
                                          [ scene_25 ]
C:/Users/user/AppData/Local/Temp/_gbsbuild/obj/scene_26_actors.rel
                                          [ scene_26_actors ]
C:/Users/user/AppData/Local/Temp/_gbsbuild/obj/scene_26_collisions.rel
                                          [ scene_26_collisions ]
C:/Users/user/AppData/Local/Temp/_gbsbuild/obj/scene_26_init.rel
                                          [ scene_26_init ]
C:/Users/user/AppData/Local/Temp/_gbsbuild/obj/scene_26_sprites.rel
                                          [ scene_26_sprites ]
C:/Users/user/AppData/Local/Temp/_gbsbuild/obj/scene_26_triggers.rel
                                          [ scene_26_triggers ]
C:/Users/user/AppData/Local/Temp/_gbsbuild/obj/scene_26.rel
                                          [ scene_26 ]
C:/Users/user/AppData/Local/Temp/_gbsbuild/obj/scene_27_actors.rel
                                          [ scene_27_actors ]
C:/Users/user/AppData/Local/Temp/_gbsbuild/obj/scene_27_collisions.rel
                                          [ scene_27_collisions ]
C:/Users/user/AppData/Local/Temp/_gbsbuild/obj/scene_27_init.rel
                                          [ scene_27_init ]
C:/Users/user/AppData/Local/Temp/_gbsbuild/obj/scene_27_sprites.rel
                                          [ scene_27_sprites ]
C:/Users/user/AppData/Local/Temp/_gbsbuild/obj/scene_27_triggers.rel
                                          [ scene_27_triggers ]
C:/Users/user/AppData/Local/Temp/_gbsbuild/obj/scene_27.rel
                                          [ scene_27 ]
C:/Users/user/AppData/Local/Temp/_gbsbuild/obj/scene_28_actors.rel
                                          [ scene_28_actors ]
C:/Users/user/AppData/Local/Temp/_gbsbuild/obj/scene_28_collisions.rel
                                          [ scene_28_collisions ]
C:/Users/user/AppData/Local/Temp/_gbsbuild/obj/scene_28_init.rel
                                          [ scene_28_init ]
C:/Users/user/AppData/Local/Temp/_gbsbuild/obj/scene_28_sprites.rel
                                          [ scene_28_sprites ]
C:/Users/user/AppData/Local/Temp/_gbsbuild/obj/scene_28_triggers.rel
                                          [ scene_28_triggers ]
C:/Users/user/AppData/Local/Temp/_gbsbuild/obj/scene_28.rel
                                          [ scene_28 ]
C:/Users/user/AppData/Local/Temp/_gbsbuild/obj/scene_29_actors.rel
                                          [ scene_29_actors ]
C:/Users/user/AppData/Local/Temp/_gbsbuild/obj/scene_29_collisions.rel
                                          [ scene_29_collisions ]
C:/Users/user/AppData/Local/Temp/_gbsbuild/obj/scene_29_init.rel
                                          [ scene_29_init ]
C:/Users/user/AppData/Local/Temp/_gbsbuild/obj/scene_29_sprites.rel
                                          [ scene_29_sprites ]
C:/Users/user/AppData/Local/Temp/_gbsbuild/obj/scene_29_triggers.rel
                                          [ scene_29_triggers ]
C:/Users/user/AppData/Local/Temp/_gbsbuild/obj/scene_29.rel
                                          [ scene_29 ]
C:/Users/user/AppData/Local/Temp/_gbsbuild/obj/scene_30_actors.rel
                                          [ scene_30_actors ]
C:/Users/user/AppData/Local/Temp/_gbsbuild/obj/scene_30_collisions.rel
                                          [ scene_30_collisions ]
C:/Users/user/AppData/Local/Temp/_gbsbuild/obj/scene_30_init.rel
                                          [ scene_30_init ]
C:/Users/user/AppData/Local/Temp/_gbsbuild/obj/scene_30_p_hit1.rel
                                          [ scene_30_p_hit1 ]
C:/Users/user/AppData/Local/Temp/_gbsbuild/obj/scene_30_sprites.rel
                                          [ scene_30_sprites ]
C:/Users/user/AppData/Local/Temp/_gbsbuild/obj/scene_30_triggers.rel
                                          [ scene_30_triggers ]
C:/Users/user/AppData/Local/Temp/_gbsbuild/obj/scene_30.rel
                                          [ scene_30 ]
C:/Users/user/AppData/Local/Temp/_gbsbuild/obj/scene_battle_actors.rel
                                          [ scene_battle_actors ]
C:/Users/user/AppData/Local/Temp/_gbsbuild/obj/scene_battle_collisions.rel
                                          [ scene_battle_collisions ]
C:/Users/user/AppData/Local/Temp/_gbsbuild/obj/scene_battle_init.rel
                                          [ scene_battle_init ]
C:/Users/user/AppData/Local/Temp/_gbsbuild/obj/scene_battle_sprites.rel
                                          [ scene_battle_sprites ]
C:/Users/user/AppData/Local/Temp/_gbsbuild/obj/scene_battle_triggers.rel
                                          [ scene_battle_triggers ]
C:/Users/user/AppData/Local/Temp/_gbsbuild/obj/scene_battle.rel
                                          [ scene_battle ]
C:/Users/user/AppData/Local/Temp/_gbsbuild/obj/scene_cave_actors.rel
                                          [ scene_cave_actors ]
C:/Users/user/AppData/Local/Temp/_gbsbuild/obj/scene_cave_collisions.rel
                                          [ scene_cave_collisions ]
C:/Users/user/AppData/Local/Temp/_gbsbuild/obj/scene_cave_init.rel
                                          [ scene_cave_init ]
C:/Users/user/AppData/Local/Temp/_gbsbuild/obj/scene_cave_sprites.rel
                                          [ scene_cave_sprites ]
C:/Users/user/AppData/Local/Temp/_gbsbuild/obj/scene_cave_triggers.rel
                                          [ scene_cave_triggers ]
C:/Users/user/AppData/Local/Temp/_gbsbuild/obj/scene_cave.rel
                                          [ scene_cave ]
C:/Users/user/AppData/Local/Temp/_gbsbuild/obj/scene_deep_space_actors.rel
                                          [ scene_deep_space_actors ]
C:/Users/user/AppData/Local/Temp/_gbsbuild/obj/scene_deep_space_collisions.rel
                                          [ scene_deep_space_collisions ]
C:/Users/user/AppData/Local/Temp/_gbsbuild/obj/scene_deep_space_init.rel
                                          [ scene_deep_space_init ]
C:/Users/user/AppData/Local/Temp/_gbsbuild/obj/scene_deep_space_sprites.rel
                                          [ scene_deep_space_sprites ]
C:/Users/user/AppData/Local/Temp/_gbsbuild/obj/scene_deep_space_triggers.rel
                                          [ scene_deep_space_triggers ]
C:/Users/user/AppData/Local/Temp/_gbsbuild/obj/scene_deep_space.rel
                                          [ scene_deep_space ]
C:/Users/user/AppData/Local/Temp/_gbsbuild/obj/scene_deeper_underground_actors.rel
                                          [ scene_deeper_underground_actors ]
C:/Users/user/AppData/Local/Temp/_gbsbuild/obj/scene_deeper_underground_collisions.rel
                                          [ scene_deeper_underground_collisi ]
C:/Users/user/AppData/Local/Temp/_gbsbuild/obj/scene_deeper_underground_init.rel
                                          [ scene_deeper_underground_init ]
C:/Users/user/AppData/Local/Temp/_gbsbuild/obj/scene_deeper_underground_sprites.rel
                                          [ scene_deeper_underground_sprites ]
C:/Users/user/AppData/Local/Temp/_gbsbuild/obj/scene_deeper_underground_triggers.rel
                                          [ scene_deeper_underground_trigger ]
C:/Users/user/AppData/Local/Temp/_gbsbuild/obj/scene_deeper_underground.rel
                                          [ scene_deeper_underground ]
C:/Users/user/AppData/Local/Temp/_gbsbuild/obj/scene_dream_collisions.rel
                                          [ scene_dream_collisions ]
C:/Users/user/AppData/Local/Temp/_gbsbuild/obj/scene_dream_init.rel
                                          [ scene_dream_init ]
C:/Users/user/AppData/Local/Temp/_gbsbuild/obj/scene_dream.rel
                                          [ scene_dream ]
C:/Users/user/AppData/Local/Temp/_gbsbuild/obj/scene_launch_site_actors.rel
                                          [ scene_launch_site_actors ]
C:/Users/user/AppData/Local/Temp/_gbsbuild/obj/scene_launch_site_collisions.rel
                                          [ scene_launch_site_collisions ]
C:/Users/user/AppData/Local/Temp/_gbsbuild/obj/scene_launch_site_init.rel
                                          [ scene_launch_site_init ]
C:/Users/user/AppData/Local/Temp/_gbsbuild/obj/scene_launch_site_sprites.rel
                                          [ scene_launch_site_sprites ]
C:/Users/user/AppData/Local/Temp/_gbsbuild/obj/scene_launch_site_triggers.rel
                                          [ scene_launch_site_triggers ]
C:/Users/user/AppData/Local/Temp/_gbsbuild/obj/scene_launch_site.rel
                                          [ scene_launch_site ]
C:/Users/user/AppData/Local/Temp/_gbsbuild/obj/scene_logo_collisions.rel
                                          [ scene_logo_collisions ]
C:/Users/user/AppData/Local/Temp/_gbsbuild/obj/scene_logo_init.rel
                                          [ scene_logo_init ]
C:/Users/user/AppData/Local/Temp/_gbsbuild/obj/scene_logo.rel
                                          [ scene_logo ]
C:/Users/user/AppData/Local/Temp/_gbsbuild/obj/scene_menu_3_actors.rel
                                          [ scene_menu_3_actors ]
C:/Users/user/AppData/Local/Temp/_gbsbuild/obj/scene_menu_3_collisions.rel
                                          [ scene_menu_3_collisions ]
C:/Users/user/AppData/Local/Temp/_gbsbuild/obj/scene_menu_3_init.rel
                                          [ scene_menu_3_init ]
C:/Users/user/AppData/Local/Temp/_gbsbuild/obj/scene_menu_3_sprites.rel
                                          [ scene_menu_3_sprites ]
C:/Users/user/AppData/Local/Temp/_gbsbuild/obj/scene_menu_3.rel
                                          [ scene_menu_3 ]
C:/Users/user/AppData/Local/Temp/_gbsbuild/obj/scene_menu_page_1_actors.rel
                                          [ scene_menu_page_1_actors ]
C:/Users/user/AppData/Local/Temp/_gbsbuild/obj/scene_menu_page_1_collisions.rel
                                          [ scene_menu_page_1_collisions ]
C:/Users/user/AppData/Local/Temp/_gbsbuild/obj/scene_menu_page_1_init.rel
                                          [ scene_menu_page_1_init ]
C:/Users/user/AppData/Local/Temp/_gbsbuild/obj/scene_menu_page_1_sprites.rel
                                          [ scene_menu_page_1_sprites ]
C:/Users/user/AppData/Local/Temp/_gbsbuild/obj/scene_menu_page_1.rel
                                          [ scene_menu_page_1 ]
C:/Users/user/AppData/Local/Temp/_gbsbuild/obj/scene_menu_page_2_actors.rel
                                          [ scene_menu_page_2_actors ]
C:/Users/user/AppData/Local/Temp/_gbsbuild/obj/scene_menu_page_2_collisions.rel
                                          [ scene_menu_page_2_collisions ]
C:/Users/user/AppData/Local/Temp/_gbsbuild/obj/scene_menu_page_2_init.rel
                                          [ scene_menu_page_2_init ]
C:/Users/user/AppData/Local/Temp/_gbsbuild/obj/scene_menu_page_2_sprites.rel
                                          [ scene_menu_page_2_sprites ]
C:/Users/user/AppData/Local/Temp/_gbsbuild/obj/scene_menu_page_2.rel
                                          [ scene_menu_page_2 ]
C:/Users/user/AppData/Local/Temp/_gbsbuild/obj/scene_parallax_example_actors.rel
                                          [ scene_parallax_example_actors ]
C:/Users/user/AppData/Local/Temp/_gbsbuild/obj/scene_parallax_example_collisions.rel
                                          [ scene_parallax_example_collision ]
C:/Users/user/AppData/Local/Temp/_gbsbuild/obj/scene_parallax_example_init.rel
                                          [ scene_parallax_example_init ]
C:/Users/user/AppData/Local/Temp/_gbsbuild/obj/scene_parallax_example_sprites.rel
                                          [ scene_parallax_example_sprites ]
C:/Users/user/AppData/Local/Temp/_gbsbuild/obj/scene_parallax_example_triggers.rel
                                          [ scene_parallax_example_triggers ]
C:/Users/user/AppData/Local/Temp/_gbsbuild/obj/scene_parallax_example.rel
                                          [ scene_parallax_example ]
C:/Users/user/AppData/Local/Temp/_gbsbuild/obj/scene_path_to_sample_town_actors.rel
                                          [ scene_path_to_sample_town_actors ]
C:/Users/user/AppData/Local/Temp/_gbsbuild/obj/scene_path_to_sample_town_collisions.rel
                                          [ scene_path_to_sample_town_collis ]
C:/Users/user/AppData/Local/Temp/_gbsbuild/obj/scene_path_to_sample_town_init.rel
                                          [ scene_path_to_sample_town_init ]
C:/Users/user/AppData/Local/Temp/_gbsbuild/obj/scene_path_to_sample_town_sprites.rel
                                          [ scene_path_to_sample_town_sprite ]
C:/Users/user/AppData/Local/Temp/_gbsbuild/obj/scene_path_to_sample_town_triggers.rel
                                          [ scene_path_to_sample_town_trigge ]
C:/Users/user/AppData/Local/Temp/_gbsbuild/obj/scene_path_to_sample_town.rel
                                          [ scene_path_to_sample_town ]
C:/Users/user/AppData/Local/Temp/_gbsbuild/obj/scene_player_s_house_collisions.rel
                                          [ scene_player_s_house_collisions ]
C:/Users/user/AppData/Local/Temp/_gbsbuild/obj/scene_player_s_house_init.rel
                                          [ scene_player_s_house_init ]
C:/Users/user/AppData/Local/Temp/_gbsbuild/obj/scene_player_s_house_triggers.rel
                                          [ scene_player_s_house_triggers ]
C:/Users/user/AppData/Local/Temp/_gbsbuild/obj/scene_player_s_house.rel
                                          [ scene_player_s_house ]
C:/Users/user/AppData/Local/Temp/_gbsbuild/obj/scene_sample_town_actors.rel
                                          [ scene_sample_town_actors ]
C:/Users/user/AppData/Local/Temp/_gbsbuild/obj/scene_sample_town_collisions.rel
                                          [ scene_sample_town_collisions ]
C:/Users/user/AppData/Local/Temp/_gbsbuild/obj/scene_sample_town_init.rel
                                          [ scene_sample_town_init ]
C:/Users/user/AppData/Local/Temp/_gbsbuild/obj/scene_sample_town_sprites.rel
                                          [ scene_sample_town_sprites ]
C:/Users/user/AppData/Local/Temp/_gbsbuild/obj/scene_sample_town_triggers.rel
                                          [ scene_sample_town_triggers ]
C:/Users/user/AppData/Local/Temp/_gbsbuild/obj/scene_sample_town.rel
                                          [ scene_sample_town ]
C:/Users/user/AppData/Local/Temp/_gbsbuild/obj/scene_space_battle_actors.rel
                                          [ scene_space_battle_actors ]
C:/Users/user/AppData/Local/Temp/_gbsbuild/obj/scene_space_battle_collisions.rel
                                          [ scene_space_battle_collisions ]
C:/Users/user/AppData/Local/Temp/_gbsbuild/obj/scene_space_battle_init.rel
                                          [ scene_space_battle_init ]
C:/Users/user/AppData/Local/Temp/_gbsbuild/obj/scene_space_battle_p_hit1.rel
                                          [ scene_space_battle_p_hit1 ]
C:/Users/user/AppData/Local/Temp/_gbsbuild/obj/scene_space_battle_projectiles.rel
                                          [ scene_space_battle_projectiles ]
C:/Users/user/AppData/Local/Temp/_gbsbuild/obj/scene_space_battle_sprites.rel
                                          [ scene_space_battle_sprites ]
C:/Users/user/AppData/Local/Temp/_gbsbuild/obj/scene_space_battle_triggers.rel
                                          [ scene_space_battle_triggers ]
C:/Users/user/AppData/Local/Temp/_gbsbuild/obj/scene_space_battle.rel
                                          [ scene_space_battle ]
C:/Users/user/AppData/Local/Temp/_gbsbuild/obj/scene_title_screen_collisions.rel
                                          [ scene_title_screen_collisions ]
C:/Users/user/AppData/Local/Temp/_gbsbuild/obj/scene_title_screen_init.rel
                                          [ scene_title_screen_init ]
C:/Users/user/AppData/Local/Temp/_gbsbuild/obj/scene_title_screen.rel
                                          [ scene_title_screen ]
C:/Users/user/AppData/Local/Temp/_gbsbuild/obj/scene_top_house_actors.rel
                                          [ scene_top_house_actors ]
C:/Users/user/AppData/Local/Temp/_gbsbuild/obj/scene_top_house_collisions.rel
                                          [ scene_top_house_collisions ]
C:/Users/user/AppData/Local/Temp/_gbsbuild/obj/scene_top_house_init.rel
                                          [ scene_top_house_init ]
C:/Users/user/AppData/Local/Temp/_gbsbuild/obj/scene_top_house_sprites.rel
                                          [ scene_top_house_sprites ]
C:/Users/user/AppData/Local/Temp/_gbsbuild/obj/scene_top_house_triggers.rel
                                          [ scene_top_house_triggers ]
C:/Users/user/AppData/Local/Temp/_gbsbuild/obj/scene_top_house.rel
                                          [ scene_top_house ]
C:/Users/user/AppData/Local/Temp/_gbsbuild/obj/scene_underground_actors.rel
                                          [ scene_underground_actors ]
C:/Users/user/AppData/Local/Temp/_gbsbuild/obj/scene_underground_collisions.rel
                                          [ scene_underground_collisions ]
C:/Users/user/AppData/Local/Temp/_gbsbuild/obj/scene_underground_init.rel
                                          [ scene_underground_init ]
C:/Users/user/AppData/Local/Temp/_gbsbuild/obj/scene_underground_sprites.rel
                                          [ scene_underground_sprites ]
C:/Users/user/AppData/Local/Temp/_gbsbuild/obj/scene_underground_triggers.rel
                                          [ scene_underground_triggers ]
C:/Users/user/AppData/Local/Temp/_gbsbuild/obj/scene_underground.rel
                                          [ scene_underground ]
C:/Users/user/AppData/Local/Temp/_gbsbuild/obj/script_12.rel
                                          [ script_12 ]
C:/Users/user/AppData/Local/Temp/_gbsbuild/obj/script_15.rel
                                          [ script_15 ]
C:/Users/user/AppData/Local/Temp/_gbsbuild/obj/script_16.rel
                                          [ script_16 ]
C:/Users/user/AppData/Local/Temp/_gbsbuild/obj/script_17.rel
                                          [ script_17 ]
C:/Users/user/AppData/Local/Temp/_gbsbuild/obj/script_enemy_ship_destroy.rel
                                          [ script_enemy_ship_destroy ]
C:/Users/user/AppData/Local/Temp/_gbsbuild/obj/script_enemy_ship_hit_playe.rel
                                          [ script_enemy_ship_hit_playe ]
C:/Users/user/AppData/Local/Temp/_gbsbuild/obj/script_enemy_ship_movement__0.rel
                                          [ script_enemy_ship_movement__0 ]
C:/Users/user/AppData/Local/Temp/_gbsbuild/obj/script_enemy_ship_movement__1.rel
                                          [ script_enemy_ship_movement__1 ]
C:/Users/user/AppData/Local/Temp/_gbsbuild/obj/script_enemy_ship_movement__2.rel
                                          [ script_enemy_ship_movement__2 ]
C:/Users/user/AppData/Local/Temp/_gbsbuild/obj/script_enemy_ship_movement_.rel
                                          [ script_enemy_ship_movement_ ]
C:/Users/user/AppData/Local/Temp/_gbsbuild/obj/script_engine_init.rel
                                          [  ]
C:/Users/user/AppData/Local/Temp/_gbsbuild/obj/script_init_menu.rel
                                          [ script_init_menu ]
C:/Users/user/AppData/Local/Temp/_gbsbuild/obj/script_init_weapons.rel
                                          [ script_init_weapons ]
C:/Users/user/AppData/Local/Temp/_gbsbuild/obj/script_input_0.rel
                                          [ script_input_0 ]
C:/Users/user/AppData/Local/Temp/_gbsbuild/obj/script_input_1.rel
                                          [ script_input_1 ]
C:/Users/user/AppData/Local/Temp/_gbsbuild/obj/script_input_2.rel
                                          [ script_input_2 ]
C:/Users/user/AppData/Local/Temp/_gbsbuild/obj/script_input_3.rel
                                          [ script_input_3 ]
C:/Users/user/AppData/Local/Temp/_gbsbuild/obj/script_turnip_collisions.rel
                                          [ script_turnip_collisions ]
C:/Users/user/AppData/Local/Temp/_gbsbuild/obj/script_turnip_init.rel
                                          [ script_turnip_init ]
C:/Users/user/AppData/Local/Temp/_gbsbuild/obj/script_turnip_movement.rel
                                          [ script_turnip_movement ]
C:/Users/user/AppData/Local/Temp/_gbsbuild/obj/sound_gbstudio_sfx_sav.rel
                                          [ sound_gbstudio_sfx_sav ]
C:/Users/user/AppData/Local/Temp/_gbsbuild/obj/sound_legacy_0.rel
                                          [ sound_legacy_0 ]
C:/Users/user/AppData/Local/Temp/_gbsbuild/obj/sprite_ant_tileset.rel
                                          [ sprite_ant_tileset ]
C:/Users/user/AppData/Local/Temp/_gbsbuild/obj/sprite_ant.rel
                                          [ sprite_ant ]
C:/Users/user/AppData/Local/Temp/_gbsbuild/obj/sprite_baldguybymonkeyimage_tileset.rel
                                          [ sprite_baldguybymonkeyimage_tile ]
C:/Users/user/AppData/Local/Temp/_gbsbuild/obj/sprite_baldguybymonkeyimage.rel
                                          [ sprite_baldguybymonkeyimage ]
C:/Users/user/AppData/Local/Temp/_gbsbuild/obj/sprite_blackplayer_tileset.rel
                                          [ sprite_blackplayer_tileset ]
C:/Users/user/AppData/Local/Temp/_gbsbuild/obj/sprite_blackplayer.rel
                                          [ sprite_blackplayer ]
C:/Users/user/AppData/Local/Temp/_gbsbuild/obj/sprite_bullet_left_tileset.rel
                                          [ sprite_bullet_left_tileset ]
C:/Users/user/AppData/Local/Temp/_gbsbuild/obj/sprite_bullet_left.rel
                                          [ sprite_bullet_left ]
C:/Users/user/AppData/Local/Temp/_gbsbuild/obj/sprite_bullet_right_tileset.rel
                                          [ sprite_bullet_right_tileset ]
C:/Users/user/AppData/Local/Temp/_gbsbuild/obj/sprite_bullet_right.rel
                                          [ sprite_bullet_right ]
C:/Users/user/AppData/Local/Temp/_gbsbuild/obj/sprite_cat_tileset.rel
                                          [ sprite_cat_tileset ]
C:/Users/user/AppData/Local/Temp/_gbsbuild/obj/sprite_cat.rel
                                          [ sprite_cat ]
C:/Users/user/AppData/Local/Temp/_gbsbuild/obj/sprite_checkbox_tileset.rel
                                          [ sprite_checkbox_tileset ]
C:/Users/user/AppData/Local/Temp/_gbsbuild/obj/sprite_checkbox.rel
                                          [ sprite_checkbox ]
C:/Users/user/AppData/Local/Temp/_gbsbuild/obj/sprite_chest_tileset.rel
                                          [ sprite_chest_tileset ]
C:/Users/user/AppData/Local/Temp/_gbsbuild/obj/sprite_chest.rel
                                          [ sprite_chest ]
C:/Users/user/AppData/Local/Temp/_gbsbuild/obj/sprite_chipmunk_tileset.rel
                                          [ sprite_chipmunk_tileset ]
C:/Users/user/AppData/Local/Temp/_gbsbuild/obj/sprite_chipmunk.rel
                                          [ sprite_chipmunk ]
C:/Users/user/AppData/Local/Temp/_gbsbuild/obj/sprite_cursor_tileset.rel
                                          [ sprite_cursor_tileset ]
C:/Users/user/AppData/Local/Temp/_gbsbuild/obj/sprite_cursor.rel
                                          [ sprite_cursor ]
C:/Users/user/AppData/Local/Temp/_gbsbuild/obj/sprite_dog_tileset.rel
                                          [ sprite_dog_tileset ]
C:/Users/user/AppData/Local/Temp/_gbsbuild/obj/sprite_dog.rel
                                          [ sprite_dog ]
C:/Users/user/AppData/Local/Temp/_gbsbuild/obj/sprite_drumkit_tileset.rel
                                          [ sprite_drumkit_tileset ]
C:/Users/user/AppData/Local/Temp/_gbsbuild/obj/sprite_drumkit.rel
                                          [ sprite_drumkit ]
C:/Users/user/AppData/Local/Temp/_gbsbuild/obj/sprite_duck_tileset.rel
                                          [ sprite_duck_tileset ]
C:/Users/user/AppData/Local/Temp/_gbsbuild/obj/sprite_duck.rel
                                          [ sprite_duck ]
C:/Users/user/AppData/Local/Temp/_gbsbuild/obj/sprite_elephant_tileset.rel
                                          [ sprite_elephant_tileset ]
C:/Users/user/AppData/Local/Temp/_gbsbuild/obj/sprite_elephant.rel
                                          [ sprite_elephant ]
C:/Users/user/AppData/Local/Temp/_gbsbuild/obj/sprite_enemy_ship_tileset.rel
                                          [ sprite_enemy_ship_tileset ]
C:/Users/user/AppData/Local/Temp/_gbsbuild/obj/sprite_enemy_ship.rel
                                          [ sprite_enemy_ship ]
C:/Users/user/AppData/Local/Temp/_gbsbuild/obj/sprite_ferret_tileset.rel
                                          [ sprite_ferret_tileset ]
C:/Users/user/AppData/Local/Temp/_gbsbuild/obj/sprite_ferret.rel
                                          [ sprite_ferret ]
C:/Users/user/AppData/Local/Temp/_gbsbuild/obj/sprite_fire_tileset.rel
                                          [ sprite_fire_tileset ]
C:/Users/user/AppData/Local/Temp/_gbsbuild/obj/sprite_fire.rel
                                          [ sprite_fire ]
C:/Users/user/AppData/Local/Temp/_gbsbuild/obj/sprite_frog_tileset.rel
                                          [ sprite_frog_tileset ]
C:/Users/user/AppData/Local/Temp/_gbsbuild/obj/sprite_frog.rel
                                          [ sprite_frog ]
C:/Users/user/AppData/Local/Temp/_gbsbuild/obj/sprite_gerbil_tileset.rel
                                          [ sprite_gerbil_tileset ]
C:/Users/user/AppData/Local/Temp/_gbsbuild/obj/sprite_gerbil.rel
                                          [ sprite_gerbil ]
C:/Users/user/AppData/Local/Temp/_gbsbuild/obj/sprite_guybymonkeyimage_tileset.rel
                                          [ sprite_guybymonkeyimage_tileset ]
C:/Users/user/AppData/Local/Temp/_gbsbuild/obj/sprite_guybymonkeyimage.rel
                                          [ sprite_guybymonkeyimage ]
C:/Users/user/AppData/Local/Temp/_gbsbuild/obj/sprite_hedgehog_tileset.rel
                                          [ sprite_hedgehog_tileset ]
C:/Users/user/AppData/Local/Temp/_gbsbuild/obj/sprite_hedgehog.rel
                                          [ sprite_hedgehog ]
C:/Users/user/AppData/Local/Temp/_gbsbuild/obj/sprite_hidden_stairs_tileset.rel
                                          [ sprite_hidden_stairs_tileset ]
C:/Users/user/AppData/Local/Temp/_gbsbuild/obj/sprite_hidden_stairs.rel
                                          [ sprite_hidden_stairs ]
C:/Users/user/AppData/Local/Temp/_gbsbuild/obj/sprite_hpbarfull_tileset.rel
                                          [ sprite_hpbarfull_tileset ]
C:/Users/user/AppData/Local/Temp/_gbsbuild/obj/sprite_hpbarfull.rel
                                          [ sprite_hpbarfull ]
C:/Users/user/AppData/Local/Temp/_gbsbuild/obj/sprite_ice_tileset.rel
                                          [ sprite_ice_tileset ]
C:/Users/user/AppData/Local/Temp/_gbsbuild/obj/sprite_ice.rel
                                          [ sprite_ice ]
C:/Users/user/AppData/Local/Temp/_gbsbuild/obj/sprite_inside_seven_eleven_tilemap_attr.rel
                                          [ sprite_inside_seven_eleven_tilem ]
C:/Users/user/AppData/Local/Temp/_gbsbuild/obj/sprite_inside_seven_eleven_tilemap.rel
                                          [ sprite_inside_seven_eleven_tilem ]
C:/Users/user/AppData/Local/Temp/_gbsbuild/obj/sprite_inside_seven_eleven_tileset.rel
                                          [ sprite_inside_seven_eleven_tiles ]
C:/Users/user/AppData/Local/Temp/_gbsbuild/obj/sprite_inside_seven_eleven.rel
                                          [ sprite_inside_seven_eleven ]
C:/Users/user/AppData/Local/Temp/_gbsbuild/obj/sprite_keyboard_tileset.rel
                                          [ sprite_keyboard_tileset ]
C:/Users/user/AppData/Local/Temp/_gbsbuild/obj/sprite_keyboard.rel
                                          [ sprite_keyboard ]
C:/Users/user/AppData/Local/Temp/_gbsbuild/obj/sprite_knight_animated_tileset.rel
                                          [ sprite_knight_animated_tileset ]
C:/Users/user/AppData/Local/Temp/_gbsbuild/obj/sprite_knight_animated.rel
                                          [ sprite_knight_animated ]
C:/Users/user/AppData/Local/Temp/_gbsbuild/obj/sprite_machine_tileset.rel
                                          [ sprite_machine_tileset ]
C:/Users/user/AppData/Local/Temp/_gbsbuild/obj/sprite_machine.rel
                                          [ sprite_machine ]
C:/Users/user/AppData/Local/Temp/_gbsbuild/obj/sprite_mantis_tileset.rel
                                          [ sprite_mantis_tileset ]
C:/Users/user/AppData/Local/Temp/_gbsbuild/obj/sprite_mantis.rel
                                          [ sprite_mantis ]
C:/Users/user/AppData/Local/Temp/_gbsbuild/obj/sprite_mouse_tileset.rel
                                          [ sprite_mouse_tileset ]
C:/Users/user/AppData/Local/Temp/_gbsbuild/obj/sprite_mouse.rel
                                          [ sprite_mouse ]
C:/Users/user/AppData/Local/Temp/_gbsbuild/obj/sprite_npc_gardener_tileset.rel
                                          [ sprite_npc_gardener_tileset ]
C:/Users/user/AppData/Local/Temp/_gbsbuild/obj/sprite_npc_gardener.rel
                                          [ sprite_npc_gardener ]
C:/Users/user/AppData/Local/Temp/_gbsbuild/obj/sprite_npc001_tileset.rel
                                          [ sprite_npc001_tileset ]
C:/Users/user/AppData/Local/Temp/_gbsbuild/obj/sprite_npc001.rel
                                          [ sprite_npc001 ]
C:/Users/user/AppData/Local/Temp/_gbsbuild/obj/sprite_npc002_tileset.rel
                                          [ sprite_npc002_tileset ]
C:/Users/user/AppData/Local/Temp/_gbsbuild/obj/sprite_npc002.rel
                                          [ sprite_npc002 ]
C:/Users/user/AppData/Local/Temp/_gbsbuild/obj/sprite_npc003_tileset.rel
                                          [ sprite_npc003_tileset ]
C:/Users/user/AppData/Local/Temp/_gbsbuild/obj/sprite_npc003.rel
                                          [ sprite_npc003 ]
C:/Users/user/AppData/Local/Temp/_gbsbuild/obj/sprite_npc004_tileset.rel
                                          [ sprite_npc004_tileset ]
C:/Users/user/AppData/Local/Temp/_gbsbuild/obj/sprite_npc004.rel
                                          [ sprite_npc004 ]
C:/Users/user/AppData/Local/Temp/_gbsbuild/obj/sprite_npc005_tileset.rel
                                          [ sprite_npc005_tileset ]
C:/Users/user/AppData/Local/Temp/_gbsbuild/obj/sprite_npc005.rel
                                          [ sprite_npc005 ]
C:/Users/user/AppData/Local/Temp/_gbsbuild/obj/sprite_npc006_tileset.rel
                                          [ sprite_npc006_tileset ]
C:/Users/user/AppData/Local/Temp/_gbsbuild/obj/sprite_npc006.rel
                                          [ sprite_npc006 ]
C:/Users/user/AppData/Local/Temp/_gbsbuild/obj/sprite_npc007_tileset.rel
                                          [ sprite_npc007_tileset ]
C:/Users/user/AppData/Local/Temp/_gbsbuild/obj/sprite_npc007.rel
                                          [ sprite_npc007 ]
C:/Users/user/AppData/Local/Temp/_gbsbuild/obj/sprite_npc008_tileset.rel
                                          [ sprite_npc008_tileset ]
C:/Users/user/AppData/Local/Temp/_gbsbuild/obj/sprite_npc008.rel
                                          [ sprite_npc008 ]
C:/Users/user/AppData/Local/Temp/_gbsbuild/obj/sprite_pc_car_tileset.rel
                                          [ sprite_pc_car_tileset ]
C:/Users/user/AppData/Local/Temp/_gbsbuild/obj/sprite_pc_car.rel
                                          [ sprite_pc_car ]
C:/Users/user/AppData/Local/Temp/_gbsbuild/obj/sprite_player_platform_tileset.rel
                                          [ sprite_player_platform_tileset ]
C:/Users/user/AppData/Local/Temp/_gbsbuild/obj/sprite_player_platform.rel
                                          [ sprite_player_platform ]
C:/Users/user/AppData/Local/Temp/_gbsbuild/obj/sprite_player_ship_tileset.rel
                                          [ sprite_player_ship_tileset ]
C:/Users/user/AppData/Local/Temp/_gbsbuild/obj/sprite_player_ship.rel
                                          [ sprite_player_ship ]
C:/Users/user/AppData/Local/Temp/_gbsbuild/obj/sprite_player_tileset.rel
                                          [ sprite_player_tileset ]
C:/Users/user/AppData/Local/Temp/_gbsbuild/obj/sprite_player.rel
                                          [ sprite_player ]
C:/Users/user/AppData/Local/Temp/_gbsbuild/obj/sprite_pod_door_tileset.rel
                                          [ sprite_pod_door_tileset ]
C:/Users/user/AppData/Local/Temp/_gbsbuild/obj/sprite_pod_door.rel
                                          [ sprite_pod_door ]
C:/Users/user/AppData/Local/Temp/_gbsbuild/obj/sprite_portal_tileset.rel
                                          [ sprite_portal_tileset ]
C:/Users/user/AppData/Local/Temp/_gbsbuild/obj/sprite_portal.rel
                                          [ sprite_portal ]
C:/Users/user/AppData/Local/Temp/_gbsbuild/obj/sprite_radio_tileset.rel
                                          [ sprite_radio_tileset ]
C:/Users/user/AppData/Local/Temp/_gbsbuild/obj/sprite_radio.rel
                                          [ sprite_radio ]
C:/Users/user/AppData/Local/Temp/_gbsbuild/obj/sprite_robot_tileset.rel
                                          [ sprite_robot_tileset ]
C:/Users/user/AppData/Local/Temp/_gbsbuild/obj/sprite_robot.rel
                                          [ sprite_robot ]
C:/Users/user/AppData/Local/Temp/_gbsbuild/obj/sprite_rock_tileset.rel
                                          [ sprite_rock_tileset ]
C:/Users/user/AppData/Local/Temp/_gbsbuild/obj/sprite_rock.rel
                                          [ sprite_rock ]
C:/Users/user/AppData/Local/Temp/_gbsbuild/obj/sprite_sage_tileset.rel
                                          [ sprite_sage_tileset ]
C:/Users/user/AppData/Local/Temp/_gbsbuild/obj/sprite_sage.rel
                                          [ sprite_sage ]
C:/Users/user/AppData/Local/Temp/_gbsbuild/obj/sprite_savepoint_tileset.rel
                                          [ sprite_savepoint_tileset ]
C:/Users/user/AppData/Local/Temp/_gbsbuild/obj/sprite_savepoint.rel
                                          [ sprite_savepoint ]
C:/Users/user/AppData/Local/Temp/_gbsbuild/obj/sprite_signpost_tileset.rel
                                          [ sprite_signpost_tileset ]
C:/Users/user/AppData/Local/Temp/_gbsbuild/obj/sprite_signpost.rel
                                          [ sprite_signpost ]
C:/Users/user/AppData/Local/Temp/_gbsbuild/obj/sprite_space_mine_tileset.rel
                                          [ sprite_space_mine_tileset ]
C:/Users/user/AppData/Local/Temp/_gbsbuild/obj/sprite_space_mine.rel
                                          [ sprite_space_mine ]
C:/Users/user/AppData/Local/Temp/_gbsbuild/obj/sprite_squirrel_tileset.rel
                                          [ sprite_squirrel_tileset ]
C:/Users/user/AppData/Local/Temp/_gbsbuild/obj/sprite_squirrel.rel
                                          [ sprite_squirrel ]
C:/Users/user/AppData/Local/Temp/_gbsbuild/obj/sprite_torch_tileset.rel
                                          [ sprite_torch_tileset ]
C:/Users/user/AppData/Local/Temp/_gbsbuild/obj/sprite_torch.rel
                                          [ sprite_torch ]
C:/Users/user/AppData/Local/Temp/_gbsbuild/obj/sprite_turnip_tileset.rel
                                          [ sprite_turnip_tileset ]
C:/Users/user/AppData/Local/Temp/_gbsbuild/obj/sprite_turnip.rel
                                          [ sprite_turnip ]
C:/Users/user/AppData/Local/Temp/_gbsbuild/obj/sprite_type2_tileset.rel
                                          [ sprite_type2_tileset ]
C:/Users/user/AppData/Local/Temp/_gbsbuild/obj/sprite_type2.rel
                                          [ sprite_type2 ]
C:/Users/user/AppData/Local/Temp/_gbsbuild/obj/sprite_type4_tileset.rel
                                          [ sprite_type4_tileset ]
C:/Users/user/AppData/Local/Temp/_gbsbuild/obj/sprite_type4.rel
                                          [ sprite_type4 ]
C:/Users/user/AppData/Local/Temp/_gbsbuild/obj/sprite_type5_tileset.rel
                                          [ sprite_type5_tileset ]
C:/Users/user/AppData/Local/Temp/_gbsbuild/obj/sprite_type5.rel
                                          [ sprite_type5 ]
C:/Users/user/AppData/Local/Temp/_gbsbuild/obj/sprite_type6_tileset.rel
                                          [ sprite_type6_tileset ]
C:/Users/user/AppData/Local/Temp/_gbsbuild/obj/sprite_type6.rel
                                          [ sprite_type6 ]
C:/Users/user/AppData/Local/Temp/_gbsbuild/obj/sprite_type7_tileset.rel
                                          [ sprite_type7_tileset ]
C:/Users/user/AppData/Local/Temp/_gbsbuild/obj/sprite_type7.rel
                                          [ sprite_type7 ]
C:/Users/user/AppData/Local/Temp/_gbsbuild/obj/sprite_types_tileset.rel
                                          [ sprite_types_tileset ]
C:/Users/user/AppData/Local/Temp/_gbsbuild/obj/sprite_types.rel
                                          [ sprite_types ]
C:/Users/user/AppData/Local/Temp/_gbsbuild/obj/sprite_typewater_tileset.rel
                                          [ sprite_typewater_tileset ]
C:/Users/user/AppData/Local/Temp/_gbsbuild/obj/sprite_typewater.rel
                                          [ sprite_typewater ]
C:/Users/user/AppData/Local/Temp/_gbsbuild/obj/sprite_typewood_tileset.rel
                                          [ sprite_typewood_tileset ]
C:/Users/user/AppData/Local/Temp/_gbsbuild/obj/sprite_typewood.rel
                                          [ sprite_typewood ]
C:/Users/user/AppData/Local/Temp/_gbsbuild/obj/sprite_ui_weapon_tileset.rel
                                          [ sprite_ui_weapon_tileset ]
C:/Users/user/AppData/Local/Temp/_gbsbuild/obj/sprite_ui_weapon.rel
                                          [ sprite_ui_weapon ]
C:/Users/user/AppData/Local/Temp/_gbsbuild/obj/sprite_ungulate_tileset.rel
                                          [ sprite_ungulate_tileset ]
C:/Users/user/AppData/Local/Temp/_gbsbuild/obj/sprite_ungulate.rel
                                          [ sprite_ungulate ]
C:/Users/user/AppData/Local/Temp/_gbsbuild/obj/sprite_williemouse_tileset.rel
                                          [ sprite_williemouse_tileset ]
C:/Users/user/AppData/Local/Temp/_gbsbuild/obj/sprite_williemouse.rel
                                          [ sprite_williemouse ]
C:/Users/user/AppData/Local/Temp/_gbsbuild/obj/sprite_woman_platform_tileset.rel
                                          [ sprite_woman_platform_tileset ]
C:/Users/user/AppData/Local/Temp/_gbsbuild/obj/sprite_woman_platform.rel
                                          [ sprite_woman_platform ]
C:/Users/user/AppData/Local/Temp/_gbsbuild/obj/spritesheet_none.rel
                                          [ spritesheet_none ]
C:/Users/user/AppData/Local/Temp/_gbsbuild/obj/trigger_0_interact.rel
                                          [ trigger_0_interact ]
C:/Users/user/AppData/Local/Temp/_gbsbuild/obj/trigger_1_interact.rel
                                          [ trigger_1_interact ]
C:/Users/user/AppData/Local/Temp/_gbsbuild/obj/trigger_10_interact.rel
                                          [ trigger_10_interact ]
C:/Users/user/AppData/Local/Temp/_gbsbuild/obj/trigger_11_interact.rel
                                          [ trigger_11_interact ]
C:/Users/user/AppData/Local/Temp/_gbsbuild/obj/trigger_12_interact.rel
                                          [ trigger_12_interact ]
C:/Users/user/AppData/Local/Temp/_gbsbuild/obj/trigger_13_interact.rel
                                          [ trigger_13_interact ]
C:/Users/user/AppData/Local/Temp/_gbsbuild/obj/trigger_14_interact.rel
                                          [ trigger_14_interact ]
C:/Users/user/AppData/Local/Temp/_gbsbuild/obj/trigger_15_interact.rel
                                          [ trigger_15_interact ]
C:/Users/user/AppData/Local/Temp/_gbsbuild/obj/trigger_16_interact.rel
                                          [ trigger_16_interact ]
C:/Users/user/AppData/Local/Temp/_gbsbuild/obj/trigger_17_interact.rel
                                          [ trigger_17_interact ]
C:/Users/user/AppData/Local/Temp/_gbsbuild/obj/trigger_18_interact.rel
                                          [ trigger_18_interact ]
C:/Users/user/AppData/Local/Temp/_gbsbuild/obj/trigger_19_interact.rel
                                          [ trigger_19_interact ]
C:/Users/user/AppData/Local/Temp/_gbsbuild/obj/trigger_2_interact.rel
                                          [ trigger_2_interact ]
C:/Users/user/AppData/Local/Temp/_gbsbuild/obj/trigger_20_interact.rel
                                          [ trigger_20_interact ]
C:/Users/user/AppData/Local/Temp/_gbsbuild/obj/trigger_21_interact.rel
                                          [ trigger_21_interact ]
C:/Users/user/AppData/Local/Temp/_gbsbuild/obj/trigger_22_interact.rel
                                          [ trigger_22_interact ]
C:/Users/user/AppData/Local/Temp/_gbsbuild/obj/trigger_23_interact.rel
                                          [ trigger_23_interact ]
C:/Users/user/AppData/Local/Temp/_gbsbuild/obj/trigger_24_interact.rel
                                          [ trigger_24_interact ]
C:/Users/user/AppData/Local/Temp/_gbsbuild/obj/trigger_25_interact.rel
                                          [ trigger_25_interact ]
C:/Users/user/AppData/Local/Temp/_gbsbuild/obj/trigger_26_interact.rel
                                          [ trigger_26_interact ]
C:/Users/user/AppData/Local/Temp/_gbsbuild/obj/trigger_27_interact.rel
                                          [ trigger_27_interact ]
C:/Users/user/AppData/Local/Temp/_gbsbuild/obj/trigger_28_interact.rel
                                          [ trigger_28_interact ]
C:/Users/user/AppData/Local/Temp/_gbsbuild/obj/trigger_29_interact.rel
                                          [ trigger_29_interact ]
C:/Users/user/AppData/Local/Temp/_gbsbuild/obj/trigger_3_interact.rel
                                          [ trigger_3_interact ]
C:/Users/user/AppData/Local/Temp/_gbsbuild/obj/trigger_30_interact.rel
                                          [ trigger_30_interact ]
C:/Users/user/AppData/Local/Temp/_gbsbuild/obj/trigger_31_interact.rel
                                          [ trigger_31_interact ]
C:/Users/user/AppData/Local/Temp/_gbsbuild/obj/trigger_32_interact.rel
                                          [ trigger_32_interact ]
C:/Users/user/AppData/Local/Temp/_gbsbuild/obj/trigger_33_interact.rel
                                          [ trigger_33_interact ]
C:/Users/user/AppData/Local/Temp/_gbsbuild/obj/trigger_34_interact.rel
                                          [ trigger_34_interact ]
C:/Users/user/AppData/Local/Temp/_gbsbuild/obj/trigger_35_interact.rel
                                          [ trigger_35_interact ]
C:/Users/user/AppData/Local/Temp/_gbsbuild/obj/trigger_36_interact.rel
                                          [ trigger_36_interact ]
C:/Users/user/AppData/Local/Temp/_gbsbuild/obj/trigger_37_interact.rel
                                          [ trigger_37_interact ]
C:/Users/user/AppData/Local/Temp/_gbsbuild/obj/trigger_38_interact.rel
                                          [ trigger_38_interact ]
C:/Users/user/AppData/Local/Temp/_gbsbuild/obj/trigger_39_interact.rel
                                          [ trigger_39_interact ]
C:/Users/user/AppData/Local/Temp/_gbsbuild/obj/trigger_4_interact.rel
                                          [ trigger_4_interact ]
C:/Users/user/AppData/Local/Temp/_gbsbuild/obj/trigger_40_interact.rel
                                          [ trigger_40_interact ]
C:/Users/user/AppData/Local/Temp/_gbsbuild/obj/trigger_41_interact.rel
                                          [ trigger_41_interact ]
C:/Users/user/AppData/Local/Temp/_gbsbuild/obj/trigger_42_interact.rel
                                          [ trigger_42_interact ]
C:/Users/user/AppData/Local/Temp/_gbsbuild/obj/trigger_43_interact.rel
                                          [ trigger_43_interact ]
C:/Users/user/AppData/Local/Temp/_gbsbuild/obj/trigger_45_interact.rel
                                          [ trigger_45_interact ]
C:/Users/user/AppData/Local/Temp/_gbsbuild/obj/trigger_46_interact.rel
                                          [ trigger_46_interact ]
C:/Users/user/AppData/Local/Temp/_gbsbuild/obj/trigger_47_interact.rel
                                          [ trigger_47_interact ]
C:/Users/user/AppData/Local/Temp/_gbsbuild/obj/trigger_48_interact.rel
                                          [ trigger_48_interact ]
C:/Users/user/AppData/Local/Temp/_gbsbuild/obj/trigger_49_interact.rel
                                          [ trigger_49_interact ]
C:/Users/user/AppData/Local/Temp/_gbsbuild/obj/trigger_5_interact.rel
                                          [ trigger_5_interact ]
C:/Users/user/AppData/Local/Temp/_gbsbuild/obj/trigger_50_interact.rel
                                          [ trigger_50_interact ]
C:/Users/user/AppData/Local/Temp/_gbsbuild/obj/trigger_51_interact.rel
                                          [ trigger_51_interact ]
C:/Users/user/AppData/Local/Temp/_gbsbuild/obj/trigger_52_interact.rel
                                          [ trigger_52_interact ]
C:/Users/user/AppData/Local/Temp/_gbsbuild/obj/trigger_53_interact.rel
                                          [ trigger_53_interact ]
C:/Users/user/AppData/Local/Temp/_gbsbuild/obj/trigger_54_interact.rel
                                          [ trigger_54_interact ]
C:/Users/user/AppData/Local/Temp/_gbsbuild/obj/trigger_55_interact.rel
                                          [ trigger_55_interact ]
C:/Users/user/AppData/Local/Temp/_gbsbuild/obj/trigger_56_interact.rel
                                          [ trigger_56_interact ]
C:/Users/user/AppData/Local/Temp/_gbsbuild/obj/trigger_57_interact.rel
                                          [ trigger_57_interact ]
C:/Users/user/AppData/Local/Temp/_gbsbuild/obj/trigger_58_interact.rel
                                          [ trigger_58_interact ]
C:/Users/user/AppData/Local/Temp/_gbsbuild/obj/trigger_59_interact.rel
                                          [ trigger_59_interact ]
C:/Users/user/AppData/Local/Temp/_gbsbuild/obj/trigger_6_interact.rel
                                          [ trigger_6_interact ]
C:/Users/user/AppData/Local/Temp/_gbsbuild/obj/trigger_60_interact.rel
                                          [ trigger_60_interact ]
C:/Users/user/AppData/Local/Temp/_gbsbuild/obj/trigger_61_interact.rel
                                          [ trigger_61_interact ]
C:/Users/user/AppData/Local/Temp/_gbsbuild/obj/trigger_62_interact.rel
                                          [ trigger_62_interact ]
C:/Users/user/AppData/Local/Temp/_gbsbuild/obj/trigger_63_interact.rel
                                          [ trigger_63_interact ]
C:/Users/user/AppData/Local/Temp/_gbsbuild/obj/trigger_64_interact.rel
                                          [ trigger_64_interact ]
C:/Users/user/AppData/Local/Temp/_gbsbuild/obj/trigger_65_interact.rel
                                          [ trigger_65_interact ]
C:/Users/user/AppData/Local/Temp/_gbsbuild/obj/trigger_66_interact.rel
                                          [ trigger_66_interact ]
C:/Users/user/AppData/Local/Temp/_gbsbuild/obj/trigger_67_interact.rel
                                          [ trigger_67_interact ]
C:/Users/user/AppData/Local/Temp/_gbsbuild/obj/trigger_68_interact.rel
                                          [ trigger_68_interact ]
C:/Users/user/AppData/Local/Temp/_gbsbuild/obj/trigger_69_interact.rel
                                          [ trigger_69_interact ]
C:/Users/user/AppData/Local/Temp/_gbsbuild/obj/trigger_7_interact.rel
                                          [ trigger_7_interact ]
C:/Users/user/AppData/Local/Temp/_gbsbuild/obj/trigger_70_interact.rel
                                          [ trigger_70_interact ]
C:/Users/user/AppData/Local/Temp/_gbsbuild/obj/trigger_71_interact.rel
                                          [ trigger_71_interact ]
C:/Users/user/AppData/Local/Temp/_gbsbuild/obj/trigger_72_interact.rel
                                          [ trigger_72_interact ]
C:/Users/user/AppData/Local/Temp/_gbsbuild/obj/trigger_73_interact.rel
                                          [ trigger_73_interact ]
C:/Users/user/AppData/Local/Temp/_gbsbuild/obj/trigger_74_interact.rel
                                          [ trigger_74_interact ]
C:/Users/user/AppData/Local/Temp/_gbsbuild/obj/trigger_75_interact.rel
                                          [ trigger_75_interact ]
C:/Users/user/AppData/Local/Temp/_gbsbuild/obj/trigger_8_interact.rel
                                          [ trigger_8_interact ]
C:/Users/user/AppData/Local/Temp/_gbsbuild/obj/trigger_9_interact.rel
                                          [ trigger_9_interact ]
C:/Users/user/AppData/Local/Temp/_gbsbuild/obj/trigger_fight_interact.rel
                                          [ trigger_fight_interact ]
C:/Users/user/AppData/Local/Temp/_gbsbuild/obj/trigger_itemsbattle_interact.rel
                                          [ trigger_itemsbattle_interact ]
C:/Users/user/AppData/Local/Temp/_gbsbuild/obj/trigger_switchy_interact.rel
                                          [ trigger_switchy_interact ]
C:/Users/user/AppData/Local/Temp/_gbsbuild/obj/main.rel
                                          [ main ]
C:/Users/user/AppData/Local/Temp/_gbsbuild/obj/adventure.rel
                                          [ adventure ]
C:/Users/user/AppData/Local/Temp/_gbsbuild/obj/logo.rel
                                          [ logo ]
C:/Users/user/AppData/Local/Temp/_gbsbuild/obj/platform.rel
                                          [ platform ]
C:/Users/user/AppData/Local/Temp/_gbsbuild/obj/pointnclick.rel
                                          [ pointnclick ]
C:/Users/user/AppData/Local/Temp/_gbsbuild/obj/shmup.rel
                                          [ shmup ]
C:/Users/user/AppData/Local/Temp/_gbsbuild/obj/states_ptrs.rel
                                          [  ]
C:/Users/user/AppData/Local/Temp/_gbsbuild/obj/topdown.rel
                                          [ topdown ]


Libraries Linked                          [ object file ]

C:\Users\user\AppData\Local\Temp/_gbstools/gbdk/lib/small/asxxxx/gb/gb.lib
                                          [ fill_rect_wi.o ]
C:\Users\user\AppData\Local\Temp/_gbstools/gbdk/lib/small/asxxxx/gbz80/gbz80.lib
                                          [ rand.o ]
lib/hUGEDriver.lib                        [ hUGEDriver.obj.o ]
C:\Users\user\AppData\Local\Temp/_gbstools/gbdk/lib/small/asxxxx/gb/gb.lib
                                          [ sfr.o ]
C:\Users\user\AppData\Local\Temp/_gbstools/gbdk/lib/small/asxxxx/gb/gb.lib
                                          [ get_data.o ]
C:\Users\user\AppData\Local\Temp/_gbstools/gbdk/lib/small/asxxxx/gb/gb.lib
                                          [ get_tile.o ]
C:\Users\user\AppData\Local\Temp/_gbstools/gbdk/lib/small/asxxxx/gb/gb.lib
                                          [ cgb_palettes.o ]
C:\Users\user\AppData\Local\Temp/_gbstools/gbdk/lib/small/asxxxx/gb/gb.lib
                                          [ metasprites_hide_spr.o ]
C:\Users\user\AppData\Local\Temp/_gbstools/gbdk/lib/small/asxxxx/gbz80/gbz80.lib
                                          [ mul.o ]
C:\Users\user\AppData\Local\Temp/_gbstools/gbdk/lib/small/asxxxx/gbz80/gbz80.lib
                                          [ abs.o ]
C:\Users\user\AppData\Local\Temp/_gbstools/gbdk/lib/small/asxxxx/gb/gb.lib
                                          [ set_wi_t.o ]
C:\Users\user\AppData\Local\Temp/_gbstools/gbdk/lib/small/asxxxx/gb/gb.lib
                                          [ set_data.o ]
C:\Users\user\AppData\Local\Temp/_gbstools/gbdk/lib/small/asxxxx/gbz80/gbz80.lib
                                          [ reverse.o ]
C:\Users\user\AppData\Local\Temp/_gbstools/gbdk/lib/small/asxxxx/gb/gb.lib
                                          [ far_ptr.o ]
C:\Users\user\AppData\Local\Temp/_gbstools/gbdk/lib/small/asxxxx/gb/gb.lib
                                          [ sgb.o ]
C:\Users\user\AppData\Local\Temp/_gbstools/gbdk/lib/small/asxxxx/gb/gb.lib
                                          [ lcd.o ]
C:\Users\user\AppData\Local\Temp/_gbstools/gbdk/lib/small/asxxxx/gb/gb.lib
                                          [ fill_rect.o ]
C:\Users\user\AppData\Local\Temp/_gbstools/gbdk/lib/small/asxxxx/gb/gb.lib
                                          [ cpy_data.o ]
C:\Users\user\AppData\Local\Temp/_gbstools/gbdk/lib/small/asxxxx/gb/gb.lib
                                          [ fill_rect_bk.o ]
C:\Users\user\AppData\Local\Temp/_gbstools/gbdk/lib/small/asxxxx/gb/gb.lib
                                          [ pad.o ]
C:\Users\user\AppData\Local\Temp/_gbstools/gbdk/lib/small/asxxxx/gb/gb.lib
                                          [ metasprites.o ]
C:\Users\user\AppData\Local\Temp/_gbstools/gbdk/lib/small/asxxxx/gbz80/gbz80.lib
                                          [ __sdcc_call_hl.o ]
C:\Users\user\AppData\Local\Temp/_gbstools/gbdk/lib/small/asxxxx/gbz80/gbz80.lib
                                          [ _memcpy.o ]
C:\Users\user\AppData\Local\Temp/_gbstools/gbdk/lib/small/asxxxx/gbz80/gbz80.lib
                                          [ _memset.o ]
C:\Users\user\AppData\Local\Temp/_gbstools/gbdk/lib/small/asxxxx/gb/gb.lib
                                          [ set_xy_t.o ]
C:\Users\user\AppData\Local\Temp/_gbstools/gbdk/lib/small/asxxxx/gb/gb.lib
                                          [ cgb.o ]
C:\Users\user\AppData\Local\Temp/_gbstools/gbdk/lib/small/asxxxx/gbz80/gbz80.lib
                                          [ div.o ]
C:\Users\user\AppData\Local\Temp/_gbstools/gbdk/lib/small/asxxxx/gb/gb.lib
                                          [ set_bk_t.o ]

ASxxxx Linker V03.00 + NoICE + sdld,  page 112.

User Base Address Definitions

_DATA=0xC0A0
_CODE=0x0200
ASxxxx Linker V03.00 + NoICE + sdld,  page 113.

User Global Definitions

.STACK=0xDF00
_shadow_OAM=0xC000
.refresh_OAM=0xFF80
__start_save=28

